(lp0
(I0
S''
p1
tp2
a(I7
g1
tp3
a(I2
S'7'
p4
tp5
a(I5
g1
tp6
a(I0
g1
tp7
a(I7
g1
tp8
a(I2
g4
tp9
a(I5
g1
tp10
a(I0
g1
tp11
a(I7
g1
tp12
a(I2
g4
tp13
a(I5
g1
tp14
a(I2
g4
tp15
a(I0
g1
tp16
a(I5
g1
tp17
a(I2
g4
tp18
a(I0
g1
tp19
a(I7
g1
tp20
a(I0
g1
tp21
a(I7
g1
tp22
a(I2
g4
tp23
a(I5
g1
tp24
a(I0
g1
tp25
a(I7
g1
tp26
a(I2
g4
tp27
a(I5
g1
tp28
a(I7
g1
tp29
a(I2
g4
tp30
a(I5
g1
tp31
a(I2
g4
tp32
a(I5
g1
tp33
a(I0
g1
tp34
a(I7
g1
tp35
a(I2
g4
tp36
a(I5
g1
tp37
a(I0
g1
tp38
a(I7
g1
tp39
a(I5
g1
tp40
a(I0
g1
tp41
a(I7
g1
tp42
a(I9
g1
tp43
a(I5
g1
tp44
a(I2
g1
tp45
a(I0
g1
tp46
a(I7
g1
tp47
a(I9
g1
tp48
a(I7
g1
tp49
a(I5
g1
tp50
a(I0
g1
tp51
a(I7
g1
tp52
a(I5
g1
tp53
a(I9
g1
tp54
a(I7
g1
tp55
a(I5
g1
tp56
a(I9
g1
tp57
a(I5
g1
tp58
a(I7
g1
tp59
a(I2
g1
tp60
a(I9
g1
tp61
a(I7
g1
tp62
a(I0
g1
tp63
a(I5
g1
tp64
a(I7
g1
tp65
a(I5
g1
tp66
a(I7
g1
tp67
a(I5
g1
tp68
a(I9
g1
tp69
a(I7
g1
tp70
a(I5
g1
tp71
a(I9
g1
tp72
a(I5
g1
tp73
a(I7
g1
tp74
a(I2
g1
tp75
a(I9
g1
tp76
a(I7
g1
tp77
a(I0
g1
tp78
a(I5
g1
tp79
a(I7
g1
tp80
a(I5
g1
tp81
a(I7
g1
tp82
a(I0
g1
tp83
a(I9
g1
tp84
a(I7
g1
tp85
a(I5
g1
tp86
a(I7
g1
tp87
a(I0
g1
tp88
a(I9
g1
tp89
a(I7
g1
tp90
a(I5
g1
tp91
a(I7
g1
tp92
a(I2
g1
tp93
a(I9
g1
tp94
a(I7
g1
tp95
a(I2
g1
tp96
a(I9
g1
tp97
a(I7
g1
tp98
a(I0
g1
tp99
a(I5
g1
tp100
a(I7
g1
tp101
a(I5
g1
tp102
a(I7
g1
tp103
a(I0
g1
tp104
a(I9
g1
tp105
a(I7
g1
tp106
a(I5
g1
tp107
a(I7
g1
tp108
a(I5
g1
tp109
a(I9
g1
tp110
a(I5
g1
tp111
a(I9
g1
tp112
a(I7
g1
tp113
a(I5
g1
tp114
a(I9
g1
tp115
a(I2
g1
tp116
a(I7
g1
tp117
a(I0
g1
tp118
a(I9
g1
tp119
a(I2
g1
tp120
a(I7
g1
tp121
a(I0
g1
tp122
a(I9
g1
tp123
a(I2
g1
tp124
a(I7
g1
tp125
a(I0
g1
tp126
a(I9
g1
tp127
a(I2
g1
tp128
a(I7
g1
tp129
a(I0
g1
tp130
a(I9
g1
tp131
a(I2
g1
tp132
a(I7
g1
tp133
a(I0
g1
tp134
a(I9
g1
tp135
a(I2
g1
tp136
a(I7
g1
tp137
a(I9
g1
tp138
a(I2
g1
tp139
a(I7
g1
tp140
a(I0
g1
tp141
a(I9
g1
tp142
a(I2
g1
tp143
a(I7
g1
tp144
a(I0
g1
tp145
a(I9
g1
tp146
a(I2
g1
tp147
a(I7
g1
tp148
a(I0
g1
tp149
a(I9
g1
tp150
a(I2
g1
tp151
a(I7
g1
tp152
a(I0
g1
tp153
a(I9
g1
tp154
a(I2
g1
tp155
a(I7
g1
tp156
a(I0
g1
tp157
a(I9
g1
tp158
a(I2
g1
tp159
a(I7
g1
tp160
a(I0
g1
tp161
a(I9
g1
tp162
a(I2
g1
tp163
a(I7
g1
tp164
a(I0
g1
tp165
a(I9
g1
tp166
a(I2
g1
tp167
a(I7
g1
tp168
a(I0
g1
tp169
a(I9
g1
tp170
a(I2
g1
tp171
a(I7
g1
tp172
a(I0
g1
tp173
a(I9
g1
tp174
a(I2
g1
tp175
a(I7
g1
tp176
a(I9
g1
tp177
a(I2
g1
tp178
a(I7
g1
tp179
a(I0
g1
tp180
a(I9
g1
tp181
a(I2
g1
tp182
a(I7
g1
tp183
a(I0
g1
tp184
a(I9
g1
tp185
a(I2
g1
tp186
a(I7
g1
tp187
a(I0
g1
tp188
a(I9
g1
tp189
a(I2
g1
tp190
a(I7
g1
tp191
a(I0
g1
tp192
a(I9
g1
tp193
a(I2
g1
tp194
a(I4
g1
tp195
a(I7
g1
tp196
a(I9
g1
tp197
a(I2
g1
tp198
a(I4
g1
tp199
a(I7
g1
tp200
a(I9
g1
tp201
a(I2
g1
tp202
a(I7
g1
tp203
a(I0
g1
tp204
a(I9
g1
tp205
a(I2
g1
tp206
a(I7
g1
tp207
a(I0
g1
tp208
a(I9
g1
tp209
a(I2
g1
tp210
a(I7
g1
tp211
a(I0
g1
tp212
a(I9
g1
tp213
a(I2
g1
tp214
a(I7
g1
tp215
a(I0
g1
tp216
a(I9
g1
tp217
a(I2
g1
tp218
a(I7
g1
tp219
a(I0
g1
tp220
a(I9
g1
tp221
a(I2
g1
tp222
a(I7
g1
tp223
a(I0
g1
tp224
a(I9
g1
tp225
a(I2
g1
tp226
a(I7
g1
tp227
a(I0
g1
tp228
a(I9
g1
tp229
a(I2
g1
tp230
a(I7
g1
tp231
a(I0
g1
tp232
a(I5
g1
tp233
a(I0
g1
tp234
a(I7
g1
tp235
a(I9
g1
tp236
a(I9
g1
tp237
a(I7
g1
tp238
a(I0
g1
tp239
a(I2
g4
tp240
a(I9
g1
tp241
a(I7
g1
tp242
a(I0
g1
tp243
a(I2
g4
tp244
a(I9
g1
tp245
a(I7
g1
tp246
a(I0
g1
tp247
a(I2
g4
tp248
a(I9
g1
tp249
a(I7
g1
tp250
a(I0
g1
tp251
a(I2
g4
tp252
a(I9
g1
tp253
a(I7
g1
tp254
a(I0
g1
tp255
a(I2
g4
tp256
a(I9
g1
tp257
a(I7
g1
tp258
a(I0
g1
tp259
a(I2
g4
tp260
a(I9
g1
tp261
a(I7
g1
tp262
a(I0
g1
tp263
a(I2
g4
tp264
a(I9
g1
tp265
a(I7
g1
tp266
a(I0
g1
tp267
a(I2
g4
tp268
a(I9
g1
tp269
a(I7
g1
tp270
a(I0
g1
tp271
a(I2
g4
tp272
a(I5
g1
tp273
a(I0
g1
tp274
a(I7
g1
tp275
a(I9
g1
tp276
a(I5
g1
tp277
a(I0
g1
tp278
a(I7
g1
tp279
a(I9
g1
tp280
a(I5
g1
tp281
a(I0
g1
tp282
a(I7
g1
tp283
a(I9
g1
tp284
a(I5
g1
tp285
a(I0
g1
tp286
a(I7
g1
tp287
a(I9
g1
tp288
a(I9
g1
tp289
a(I7
g1
tp290
a(I0
g1
tp291
a(I2
g4
tp292
a(I9
g1
tp293
a(I7
g1
tp294
a(I0
g1
tp295
a(I2
g4
tp296
a(I9
g1
tp297
a(I7
g1
tp298
a(I0
g1
tp299
a(I2
g4
tp300
a(I9
g1
tp301
a(I7
g1
tp302
a(I0
g1
tp303
a(I2
g4
tp304
a(I9
g1
tp305
a(I7
g1
tp306
a(I0
g1
tp307
a(I2
g4
tp308
a(I5
g1
tp309
a(I0
g1
tp310
a(I7
g1
tp311
a(I9
g1
tp312
a(I5
g1
tp313
a(I0
g1
tp314
a(I7
g1
tp315
a(I9
g1
tp316
a(I5
g1
tp317
a(I0
g1
tp318
a(I7
g1
tp319
a(I9
g1
tp320
a(I5
g1
tp321
a(I0
g1
tp322
a(I7
g1
tp323
a(I9
g1
tp324
a(I5
g1
tp325
a(I0
g1
tp326
a(I7
g1
tp327
a(I9
g1
tp328
a(I5
g1
tp329
a(I0
g1
tp330
a(I7
g1
tp331
a(I9
g1
tp332
a(I9
g1
tp333
a(I7
g1
tp334
a(I0
g1
tp335
a(I2
g4
tp336
a(I9
g1
tp337
a(I7
g1
tp338
a(I0
g1
tp339
a(I2
g4
tp340
a(I9
g1
tp341
a(I7
g1
tp342
a(I0
g1
tp343
a(I2
g4
tp344
a(I9
g1
tp345
a(I7
g1
tp346
a(I0
g1
tp347
a(I2
g4
tp348
a(I9
g1
tp349
a(I7
g1
tp350
a(I0
g1
tp351
a(I2
g4
tp352
a(I9
g1
tp353
a(I7
g1
tp354
a(I0
g1
tp355
a(I2
g4
tp356
a(I9
g1
tp357
a(I7
g1
tp358
a(I0
g1
tp359
a(I2
g4
tp360
a(I5
g1
tp361
a(I5
g1
tp362
a(I0
g1
tp363
a(I7
g1
tp364
a(I9
g1
tp365
a(I5
g1
tp366
a(I0
g1
tp367
a(I7
g1
tp368
a(I9
g1
tp369
a(I5
g1
tp370
a(I0
g1
tp371
a(I7
g1
tp372
a(I9
g1
tp373
a(I5
g1
tp374
a(I0
g1
tp375
a(I7
g1
tp376
a(I9
g1
tp377
a(I5
g1
tp378
a(I0
g1
tp379
a(I7
g1
tp380
a(I9
g1
tp381
a(I5
g1
tp382
a(I0
g1
tp383
a(I7
g1
tp384
a(I9
g1
tp385
a(I5
g1
tp386
a(I0
g1
tp387
a(I7
g1
tp388
a(I9
g1
tp389
a(I5
g1
tp390
a(I0
g1
tp391
a(I7
g1
tp392
a(I9
g1
tp393
a(I5
g1
tp394
a(I0
g1
tp395
a(I7
g1
tp396
a(I9
g1
tp397
a(I5
g1
tp398
a(I0
g1
tp399
a(I7
g1
tp400
a(I9
g1
tp401
a(I5
g1
tp402
a(I0
g1
tp403
a(I7
g1
tp404
a(I9
g1
tp405
a(I0
g1
tp406
a(I9
g1
tp407
a(I5
g1
tp408
a(I7
g1
tp409
a(I0
g1
tp410
a(I9
g1
tp411
a(I5
g1
tp412
a(I7
g1
tp413
a(I0
g1
tp414
a(I9
g1
tp415
a(I5
g1
tp416
a(I7
g1
tp417
a(I0
g1
tp418
a(I9
g1
tp419
a(I5
g1
tp420
a(I7
g1
tp421
a(I0
g1
tp422
a(I9
g1
tp423
a(I5
g1
tp424
a(I7
g1
tp425
a(I0
g1
tp426
a(I9
g1
tp427
a(I5
g1
tp428
a(I7
g1
tp429
a(I5
g1
tp430
a(I0
g1
tp431
a(I5
g1
tp432
a(I7
g1
tp433
a(I5
g1
tp434
a(I0
g1
tp435
a(I5
g1
tp436
a(I7
g1
tp437
a(I5
g1
tp438
a(I0
g1
tp439
a(I5
g1
tp440
a(I7
g1
tp441
a(I5
g1
tp442
a(I0
g1
tp443
a(I7
g1
tp444
a(I7
g1
tp445
a(I0
g1
tp446
a(I5
g1
tp447
a(I5
g1
tp448
a(I0
g1
tp449
a(I7
g1
tp450
a(I7
g1
tp451
a(I5
g1
tp452
a(I0
g1
tp453
a(I7
g1
tp454
a(I7
g1
tp455
a(I0
g1
tp456
a(I5
g1
tp457
a(I5
g1
tp458
a(I0
g1
tp459
a(I7
g1
tp460
a(I7
g1
tp461
a(I5
g1
tp462
a(I0
g1
tp463
a(I7
g1
tp464
a(I7
g1
tp465
a(I0
g1
tp466
a(I5
g1
tp467
a(I5
g1
tp468
a(I0
g1
tp469
a(I7
g1
tp470
a(I7
g1
tp471
a(I5
g1
tp472
a(I0
g1
tp473
a(I7
g1
tp474
a(I7
g1
tp475
a(I0
g1
tp476
a(I5
g1
tp477
a(I5
g1
tp478
a(I0
g1
tp479
a(I7
g1
tp480
a(I7
g1
tp481
a(I7
g1
tp482
a(I5
g1
tp483
a(I0
g1
tp484
a(I9
g4
tp485
a(I7
g1
tp486
a(I7
g1
tp487
a(I5
g1
tp488
a(I0
g1
tp489
a(I9
g4
tp490
a(I7
g1
tp491
a(I7
g1
tp492
a(I5
g1
tp493
a(I0
g1
tp494
a(I9
g4
tp495
a(I7
g1
tp496
a(I7
g1
tp497
a(I5
g1
tp498
a(I0
g1
tp499
a(I7
g1
tp500
a(I7
g1
tp501
a(I5
g1
tp502
a(I0
g1
tp503
a(I7
g1
tp504
a(I7
g1
tp505
a(I5
g1
tp506
a(I0
g1
tp507
a(I7
g1
tp508
a(I7
g1
tp509
a(I5
g1
tp510
a(I0
g1
tp511
a(I7
g1
tp512
a(I7
g1
tp513
a(I5
g1
tp514
a(I7
g1
tp515
a(I9
g1
tp516
a(I7
g1
tp517
a(I5
g1
tp518
a(I0
g1
tp519
a(I7
g1
tp520
a(I7
g1
tp521
a(I5
g1
tp522
a(I0
g1
tp523
a(I7
g1
tp524
a(I7
g1
tp525
a(I5
g1
tp526
a(I0
g1
tp527
a(I9
g4
tp528
a(I7
g1
tp529
a(I7
g1
tp530
a(I5
g1
tp531
a(I0
g1
tp532
a(I9
g4
tp533
a(I7
g1
tp534
a(I5
g1
tp535
a(I0
g1
tp536
a(I9
g4
tp537
a(I7
g1
tp538
a(I7
g1
tp539
a(I5
g1
tp540
a(I0
g1
tp541
a(I7
g1
tp542
a(I7
g1
tp543
a(I5
g1
tp544
a(I0
g1
tp545
a(I7
g1
tp546
a(I7
g1
tp547
a(I5
g1
tp548
a(I0
g1
tp549
a(I7
g1
tp550
a(I7
g1
tp551
a(I5
g1
tp552
a(I0
g1
tp553
a(I7
g1
tp554
a(I7
g1
tp555
a(I5
g1
tp556
a(I0
g1
tp557
a(I7
g1
tp558
a(I7
g1
tp559
a(I5
g1
tp560
a(I0
g1
tp561
a(I7
g1
tp562
a(I7
g1
tp563
a(I5
g1
tp564
a(I0
g1
tp565
a(I7
g1
tp566
a(I7
g1
tp567
a(I5
g1
tp568
a(I0
g1
tp569
a(I7
g1
tp570
a(I7
g1
tp571
a(I5
g1
tp572
a(I0
g1
tp573
a(I9
g4
tp574
a(I7
g1
tp575
a(I7
g1
tp576
a(I5
g1
tp577
a(I0
g1
tp578
a(I9
g4
tp579
a(I7
g1
tp580
a(I7
g1
tp581
a(I5
g1
tp582
a(I0
g1
tp583
a(I9
g4
tp584
a(I7
g1
tp585
a(I7
g1
tp586
a(I5
g1
tp587
a(I0
g1
tp588
a(I7
g1
tp589
a(I7
g1
tp590
a(I5
g1
tp591
a(I0
g1
tp592
a(I7
g1
tp593
a(I7
g1
tp594
a(I5
g1
tp595
a(I0
g1
tp596
a(I7
g1
tp597
a(I7
g1
tp598
a(I5
g1
tp599
a(I0
g1
tp600
a(I7
g1
tp601
a(I7
g1
tp602
a(I5
g1
tp603
a(I0
g1
tp604
a(I7
g1
tp605
a(I7
g1
tp606
a(I5
g1
tp607
a(I0
g1
tp608
a(I7
g1
tp609
a(I7
g1
tp610
a(I5
g1
tp611
a(I0
g1
tp612
a(I9
g4
tp613
a(I7
g1
tp614
a(I7
g1
tp615
a(I5
g1
tp616
a(I0
g1
tp617
a(I9
g4
tp618
a(I7
g1
tp619
a(I5
g1
tp620
a(I0
g1
tp621
a(I0
S'maj7'
p622
tp623
a(I0
g1
tp624
a(I0
S'maj7'
p625
tp626
a(I9
g1
tp627
a(I0
g1
tp628
a(I0
g1
tp629
a(I0
S'maj7'
p630
tp631
a(I9
g1
tp632
a(I0
g1
tp633
a(I0
g1
tp634
a(I0
S'maj7'
p635
tp636
a(I9
g1
tp637
a(I0
g1
tp638
a(I0
g1
tp639
a(I0
S'maj7'
p640
tp641
a(I9
g1
tp642
a(I0
g1
tp643
a(I0
g1
tp644
a(I0
S'maj7'
p645
tp646
a(I9
g1
tp647
a(I0
g1
tp648
a(I0
g1
tp649
a(I0
S'maj7'
p650
tp651
a(I9
g1
tp652
a(I0
g1
tp653
a(I0
g1
tp654
a(I0
S'maj7'
p655
tp656
a(I9
g1
tp657
a(I0
g1
tp658
a(I0
g1
tp659
a(I0
S'maj7'
p660
tp661
a(I9
g1
tp662
a(I0
g1
tp663
a(I0
g1
tp664
a(I0
S'maj7'
p665
tp666
a(I9
g1
tp667
a(I0
g1
tp668
a(I5
g1
tp669
a(I7
g1
tp670
a(I5
g1
tp671
a(I7
g1
tp672
a(I5
g1
tp673
a(I7
g1
tp674
a(I0
g1
tp675
a(I0
S'maj7'
p676
tp677
a(I9
g1
tp678
a(I0
g1
tp679
a(I0
g1
tp680
a(I0
S'maj7'
p681
tp682
a(I9
g1
tp683
a(I0
g1
tp684
a(I0
g1
tp685
a(I0
S'maj7'
p686
tp687
a(I9
g1
tp688
a(I0
g1
tp689
a(I0
g1
tp690
a(I0
S'maj7'
p691
tp692
a(I9
g1
tp693
a(I0
g1
tp694
a(I5
g1
tp695
a(I7
g1
tp696
a(I5
g1
tp697
a(I7
g1
tp698
a(I5
g1
tp699
a(I7
g1
tp700
a(I0
g1
tp701
a(I0
g1
tp702
a(I0
g1
tp703
a(I0
g1
tp704
a(I7
g1
tp705
a(I7
g1
tp706
a(I0
g1
tp707
a(I0
g1
tp708
a(I0
g1
tp709
a(I0
g1
tp710
a(I7
g1
tp711
a(I0
g1
tp712
a(I0
g1
tp713
a(I0
g1
tp714
a(I0
g1
tp715
a(I7
g1
tp716
a(I0
g1
tp717
a(I0
g1
tp718
a(I0
g1
tp719
a(I0
g1
tp720
a(I7
g1
tp721
a(I0
g1
tp722
a(I0
g1
tp723
a(I0
g1
tp724
a(I0
g1
tp725
a(I7
g1
tp726
a(I5
g1
tp727
a(I7
g1
tp728
a(I5
g1
tp729
a(I7
g1
tp730
a(I5
g1
tp731
a(I7
g1
tp732
a(I0
g1
tp733
a(I5
g1
tp734
a(I0
g1
tp735
a(I9
g1
tp736
a(I7
g1
tp737
a(I5
g1
tp738
a(I0
g1
tp739
a(I9
g1
tp740
a(I7
g1
tp741
a(I5
g1
tp742
a(I0
g1
tp743
a(I9
g1
tp744
a(I7
g1
tp745
a(I5
g1
tp746
a(I9
g1
tp747
a(I5
g1
tp748
a(I9
g1
tp749
a(I5
g1
tp750
a(I9
g1
tp751
a(I5
g1
tp752
a(I9
g1
tp753
a(I5
g1
tp754
a(I9
g1
tp755
a(I5
g1
tp756
a(I9
g1
tp757
a(I5
g1
tp758
a(I9
g1
tp759
a(I5
g1
tp760
a(I9
g1
tp761
a(I5
g1
tp762
a(I9
g1
tp763
a(I5
g1
tp764
a(I9
g1
tp765
a(I5
g1
tp766
a(I9
g1
tp767
a(I5
g1
tp768
a(I7
g1
tp769
a(I5
g1
tp770
a(I0
g1
tp771
a(I9
g1
tp772
a(I7
g1
tp773
a(I5
g1
tp774
a(I0
g1
tp775
a(I9
g1
tp776
a(I7
g1
tp777
a(I5
g1
tp778
a(I0
g1
tp779
a(I5
g1
tp780
a(I7
g1
tp781
a(I0
g1
tp782
a(I5
g1
tp783
a(I7
g1
tp784
a(I0
g1
tp785
a(I5
g1
tp786
a(I7
g1
tp787
a(I9
g1
tp788
a(I7
g1
tp789
a(I5
g1
tp790
a(I0
g1
tp791
a(I9
g1
tp792
a(I7
g1
tp793
a(I5
g1
tp794
a(I0
g1
tp795
a(I9
g1
tp796
a(I0
g1
tp797
a(I9
g1
tp798
a(I0
g1
tp799
a(I9
g1
tp800
a(I7
g1
tp801
a(I0
g1
tp802
a(I0
g1
tp803
a(I5
g1
tp804
a(I7
g1
tp805
a(I0
g1
tp806
a(I5
g1
tp807
a(I7
g1
tp808
a(I0
g1
tp809
a(I5
g1
tp810
a(I7
g1
tp811
a(I0
g1
tp812
a(I5
g1
tp813
a(I7
g1
tp814
a(I9
g1
tp815
a(I7
g1
tp816
a(I5
g1
tp817
a(I0
g1
tp818
a(I9
g1
tp819
a(I7
g1
tp820
a(I5
g1
tp821
a(I0
g1
tp822
a(I9
g1
tp823
a(I0
g1
tp824
a(I9
g1
tp825
a(I0
g1
tp826
a(I9
g1
tp827
a(I7
g1
tp828
a(I0
g1
tp829
a(I0
g1
tp830
a(I5
g1
tp831
a(I7
g1
tp832
a(I0
g1
tp833
a(I5
g1
tp834
a(I7
g1
tp835
a(I0
g1
tp836
a(I5
g1
tp837
a(I7
g1
tp838
a(I0
g1
tp839
a(I5
g1
tp840
a(I7
g1
tp841
a(I9
g1
tp842
a(I7
g1
tp843
a(I5
g1
tp844
a(I0
g1
tp845
a(I9
g1
tp846
a(I7
g1
tp847
a(I5
g1
tp848
a(I5
g1
tp849
a(I9
g1
tp850
a(I0
g1
tp851
a(I9
g1
tp852
a(I0
g1
tp853
a(I9
g1
tp854
a(I7
g1
tp855
a(I0
g1
tp856
a(I0
g1
tp857
a(I5
g1
tp858
a(I7
g1
tp859
a(I0
g1
tp860
a(I5
g1
tp861
a(I7
g1
tp862
a(I9
g1
tp863
a(I0
g1
tp864
a(I9
g1
tp865
a(I0
g1
tp866
a(I9
g1
tp867
a(I7
g1
tp868
a(I0
g1
tp869
a(I0
g1
tp870
a(I5
g1
tp871
a(I7
g1
tp872
a(I0
g1
tp873
a(I5
g1
tp874
a(I7
g1
tp875
a(I0
g1
tp876
a(I0
g1
tp877
a(I9
g1
tp878
a(I0
g1
tp879
a(I9
g1
tp880
a(I0
g1
tp881
a(I9
g1
tp882
a(I0
g1
tp883
a(I9
g1
tp884
a(I5
g1
tp885
a(I7
g1
tp886
a(I0
g1
tp887
a(I7
g1
tp888
a(I0
g1
tp889
a(I5
g1
tp890
a(I7
g1
tp891
a(I9
g1
tp892
a(I5
g1
tp893
a(I7
g1
tp894
a(I4
g1
tp895
a(I9
g1
tp896
a(I5
g1
tp897
a(I9
g1
tp898
a(I5
g1
tp899
a(I0
g1
tp900
a(I7
g1
tp901
a(I0
g1
tp902
a(I0
g1
tp903
a(I9
g1
tp904
a(I0
g1
tp905
a(I9
g1
tp906
a(I5
g1
tp907
a(I7
g1
tp908
a(I0
g1
tp909
a(I7
g1
tp910
a(I0
g1
tp911
a(I5
g1
tp912
a(I7
g1
tp913
a(I9
g1
tp914
a(I5
g1
tp915
a(I7
g1
tp916
a(I4
g1
tp917
a(I9
g1
tp918
a(I5
g1
tp919
a(I9
g1
tp920
a(I5
g1
tp921
a(I0
g1
tp922
a(I7
g1
tp923
a(I0
g1
tp924
a(I0
g1
tp925
a(I9
g1
tp926
a(I0
g1
tp927
a(I9
g1
tp928
a(I5
g1
tp929
a(I7
g1
tp930
a(I0
g1
tp931
a(I7
g1
tp932
a(I0
g1
tp933
a(I5
g1
tp934
a(I7
g1
tp935
a(I9
g1
tp936
a(I5
g1
tp937
a(I7
g1
tp938
a(I4
g1
tp939
a(I9
g1
tp940
a(I5
g1
tp941
a(I9
g1
tp942
a(I5
g1
tp943
a(I0
g1
tp944
a(I7
g1
tp945
a(I0
g1
tp946
a(I0
g1
tp947
a(I9
g1
tp948
a(I0
g1
tp949
a(I9
g1
tp950
a(I5
g1
tp951
a(I7
g1
tp952
a(I0
g1
tp953
a(I7
g1
tp954
a(I0
g1
tp955
a(I5
g1
tp956
a(I7
g1
tp957
a(I9
g1
tp958
a(I5
g1
tp959
a(I7
g1
tp960
a(I4
g1
tp961
a(I9
g1
tp962
a(I0
g1
tp963
a(I9
g1
tp964
a(I0
g1
tp965
a(I9
g1
tp966
a(I5
g1
tp967
a(I7
g1
tp968
a(I0
g1
tp969
a(I7
g1
tp970
a(I0
g1
tp971
a(I5
g1
tp972
a(I7
g1
tp973
a(I9
g1
tp974
a(I5
g1
tp975
a(I7
g1
tp976
a(I4
g1
tp977
a(I9
g1
tp978
a(I5
g1
tp979
a(I9
g1
tp980
a(I5
g1
tp981
a(I0
g1
tp982
a(I7
g1
tp983
a(I0
g1
tp984
a(I0
g1
tp985
a(I7
g1
tp986
a(I9
g1
tp987
a(I5
g1
tp988
a(I0
g1
tp989
a(I7
g1
tp990
a(I9
g1
tp991
a(I5
g1
tp992
a(I0
g1
tp993
a(I7
g1
tp994
a(I9
g1
tp995
a(I5
g1
tp996
a(I7
g1
tp997
a(I0
g1
tp998
a(I7
g1
tp999
a(I9
g1
tp1000
a(I5
g1
tp1001
a(I0
g1
tp1002
a(I7
g1
tp1003
a(I9
g1
tp1004
a(I5
g1
tp1005
a(I7
g1
tp1006
a(I5
g1
tp1007
a(I7
g1
tp1008
a(I0
g1
tp1009
a(I7
g1
tp1010
a(I5
g1
tp1011
a(I7
g1
tp1012
a(I0
g1
tp1013
a(I7
g1
tp1014
a(I5
g1
tp1015
a(I7
g1
tp1016
a(I0
g1
tp1017
a(I7
g1
tp1018
a(I5
g1
tp1019
a(I7
g1
tp1020
a(I0
g1
tp1021
a(I7
g1
tp1022
a(I9
g1
tp1023
a(I5
g1
tp1024
a(I0
g1
tp1025
a(I7
g1
tp1026
a(I9
g1
tp1027
a(I5
g1
tp1028
a(I0
g1
tp1029
a(I7
g1
tp1030
a(I9
g1
tp1031
a(I5
g1
tp1032
a(I7
g1
tp1033
a(I0
g1
tp1034
a(I7
g1
tp1035
a(I9
g1
tp1036
a(I5
g1
tp1037
a(I0
g1
tp1038
a(I7
g1
tp1039
a(I9
g1
tp1040
a(I5
g1
tp1041
a(I7
g1
tp1042
a(I5
g1
tp1043
a(I7
g1
tp1044
a(I0
g1
tp1045
a(I7
g1
tp1046
a(I5
g1
tp1047
a(I7
g1
tp1048
a(I0
g1
tp1049
a(I7
g1
tp1050
a(I5
g1
tp1051
a(I7
g1
tp1052
a(I0
g1
tp1053
a(I7
g1
tp1054
a(I5
g1
tp1055
a(I7
g1
tp1056
a(I0
g1
tp1057
a(I7
g1
tp1058
a(I9
g1
tp1059
a(I5
g1
tp1060
a(I0
g1
tp1061
a(I7
g1
tp1062
a(I9
g1
tp1063
a(I5
g1
tp1064
a(I7
g1
tp1065
a(I5
g1
tp1066
a(I7
g1
tp1067
a(I0
g1
tp1068
a(I7
g1
tp1069
a(I5
g1
tp1070
a(I7
g1
tp1071
a(I0
g1
tp1072
a(I7
g1
tp1073
a(I5
g1
tp1074
a(I7
g1
tp1075
a(I0
g1
tp1076
a(I7
g1
tp1077
a(I5
g1
tp1078
a(I7
g1
tp1079
a(I0
g1
tp1080
a(I7
g1
tp1081
a(I5
g1
tp1082
a(I7
g1
tp1083
a(I0
g1
tp1084
a(I7
g1
tp1085
a(I5
g1
tp1086
a(I7
g1
tp1087
a(I0
g1
tp1088
a(I7
g1
tp1089
a(I9
g1
tp1090
a(I5
g1
tp1091
a(I7
g1
tp1092
a(I0
g1
tp1093
a(I7
g1
tp1094
a(I9
g1
tp1095
a(I5
g1
tp1096
a(I7
g1
tp1097
a(I0
g1
tp1098
a(I0
g1
tp1099
a(I4
g1
tp1100
a(I0
g1
tp1101
a(I4
g1
tp1102
a(I0
g1
tp1103
a(I4
g1
tp1104
a(I0
g1
tp1105
a(I4
g1
tp1106
a(I9
g1
tp1107
a(I5
g1
tp1108
a(I7
g1
tp1109
a(I9
g1
tp1110
a(I7
g1
tp1111
a(I0
g1
tp1112
a(I4
g1
tp1113
a(I0
g1
tp1114
a(I4
g1
tp1115
a(I9
g1
tp1116
a(I5
g1
tp1117
a(I7
g1
tp1118
a(I9
g1
tp1119
a(I7
g1
tp1120
a(I0
g1
tp1121
a(I9
g1
tp1122
a(I0
g1
tp1123
a(I9
g1
tp1124
a(I0
g1
tp1125
a(I9
g1
tp1126
a(I0
g1
tp1127
a(I9
g1
tp1128
a(I0
g1
tp1129
a(I0
g1
tp1130
a(I4
g1
tp1131
a(I0
g1
tp1132
a(I4
g1
tp1133
a(I9
g1
tp1134
a(I5
g1
tp1135
a(I7
g1
tp1136
a(I9
g1
tp1137
a(I7
g1
tp1138
a(I0
g1
tp1139
a(I4
g1
tp1140
a(I0
g1
tp1141
a(I4
g1
tp1142
a(I9
g1
tp1143
a(I5
g1
tp1144
a(I7
g1
tp1145
a(I9
g1
tp1146
a(I7
g1
tp1147
a(I0
g1
tp1148
a(I9
g1
tp1149
a(I0
g1
tp1150
a(I9
g1
tp1151
a(I0
g1
tp1152
a(I9
g1
tp1153
a(I0
g1
tp1154
a(I9
g1
tp1155
a(I5
g1
tp1156
a(I7
g1
tp1157
a(I0
g1
tp1158
a(I9
g1
tp1159
a(I5
g1
tp1160
a(I7
g1
tp1161
a(I0
g1
tp1162
a(I9
g1
tp1163
a(I5
g1
tp1164
a(I7
g1
tp1165
a(I9
g1
tp1166
a(I7
g1
tp1167
a(I0
g1
tp1168
a(I4
g1
tp1169
a(I0
g1
tp1170
a(I4
g1
tp1171
a(I9
g1
tp1172
a(I5
g1
tp1173
a(I7
g1
tp1174
a(I9
g1
tp1175
a(I5
g1
tp1176
a(I7
g1
tp1177
a(I9
g1
tp1178
a(I5
g1
tp1179
a(I7
g1
tp1180
a(I9
g1
tp1181
a(I7
g1
tp1182
a(I0
g1
tp1183
a(I9
g1
tp1184
a(I0
g1
tp1185
a(I9
g1
tp1186
a(I0
g1
tp1187
a(I9
g1
tp1188
a(I0
g1
tp1189
a(I9
g1
tp1190
a(I0
g1
tp1191
a(I9
g1
tp1192
a(I0
g1
tp1193
a(I9
g1
tp1194
a(I0
g1
tp1195
a(I9
g1
tp1196
a(I0
g1
tp1197
a(I9
g1
tp1198
a(I0
g1
tp1199
a(I0
g1
tp1200
a(I0
g1
tp1201
a(I7
g1
tp1202
a(I9
g1
tp1203
a(I7
g1
tp1204
a(I7
g1
tp1205
a(I0
g1
tp1206
a(I7
g1
tp1207
a(I9
g1
tp1208
a(I7
g1
tp1209
a(I7
g1
tp1210
a(I0
g1
tp1211
a(I7
g1
tp1212
a(I9
g1
tp1213
a(I7
g1
tp1214
a(I7
g1
tp1215
a(I0
g1
tp1216
a(I7
g1
tp1217
a(I9
g1
tp1218
a(I7
g1
tp1219
a(I7
g1
tp1220
a(I5
g1
tp1221
a(I7
g1
tp1222
a(I9
g1
tp1223
a(I0
g1
tp1224
a(I7
g1
tp1225
a(I5
g1
tp1226
a(I7
g1
tp1227
a(I9
g1
tp1228
a(I0
g1
tp1229
a(I7
g1
tp1230
a(I0
g1
tp1231
a(I7
g1
tp1232
a(I9
g1
tp1233
a(I5
g1
tp1234
a(I0
g1
tp1235
a(I7
g1
tp1236
a(I9
g1
tp1237
a(I5
g1
tp1238
a(I0
g1
tp1239
a(I7
g1
tp1240
a(I9
g1
tp1241
a(I5
g1
tp1242
a(I7
g1
tp1243
a(I0
g1
tp1244
a(I7
g1
tp1245
a(I9
g1
tp1246
a(I5
g1
tp1247
a(I0
g1
tp1248
a(I7
g1
tp1249
a(I9
g1
tp1250
a(I5
g1
tp1251
a(I7
g1
tp1252
a(I0
g1
tp1253
a(I7
g1
tp1254
a(I9
g1
tp1255
a(I5
g1
tp1256
a(I0
g1
tp1257
a(I7
g1
tp1258
a(I9
g1
tp1259
a(I5
g1
tp1260
a(I0
g1
tp1261
a(I7
g1
tp1262
a(I9
g1
tp1263
a(I5
g1
tp1264
a(I0
g1
tp1265
a(I7
g1
tp1266
a(I9
g1
tp1267
a(I5
g1
tp1268
a(I0
g1
tp1269
a(I7
g1
tp1270
a(I9
g1
tp1271
a(I5
g1
tp1272
a(I0
g1
tp1273
a(I7
g1
tp1274
a(I9
g1
tp1275
a(I5
g1
tp1276
a(I0
g1
tp1277
a(I4
g1
tp1278
a(I0
g1
tp1279
a(I4
g1
tp1280
a(I2
g1
tp1281
a(I9
g1
tp1282
a(I2
g1
tp1283
a(I7
g1
tp1284
a(I0
g1
tp1285
a(I4
g1
tp1286
a(I0
g1
tp1287
a(I4
g1
tp1288
a(I2
g1
tp1289
a(I9
g1
tp1290
a(I2
g1
tp1291
a(I7
g1
tp1292
a(I5
g1
tp1293
a(I7
g1
tp1294
a(I4
g1
tp1295
a(I9
g1
tp1296
a(I7
g1
tp1297
a(I5
g1
tp1298
a(I7
g1
tp1299
a(I4
g1
tp1300
a(I9
g1
tp1301
a(I7
g1
tp1302
a(I5
g1
tp1303
a(I7
g1
tp1304
a(I4
g4
tp1305
a(I9
g1
tp1306
a(I2
g1
tp1307
a(I7
g1
tp1308
a(I7
g1
tp1309
a(I0
g1
tp1310
a(I4
g1
tp1311
a(I0
g1
tp1312
a(I4
g1
tp1313
a(I0
g1
tp1314
a(I4
g1
tp1315
a(I2
g1
tp1316
a(I9
g1
tp1317
a(I2
g1
tp1318
a(I7
g1
tp1319
a(I0
g1
tp1320
a(I4
g1
tp1321
a(I0
g1
tp1322
a(I4
g1
tp1323
a(I2
g1
tp1324
a(I9
g1
tp1325
a(I2
g1
tp1326
a(I7
g1
tp1327
a(I5
g1
tp1328
a(I7
g1
tp1329
a(I4
g1
tp1330
a(I9
g1
tp1331
a(I7
g1
tp1332
a(I5
g1
tp1333
a(I7
g1
tp1334
a(I4
g1
tp1335
a(I9
g1
tp1336
a(I7
g1
tp1337
a(I5
g1
tp1338
a(I7
g1
tp1339
a(I4
g4
tp1340
a(I9
g1
tp1341
a(I2
g1
tp1342
a(I7
g1
tp1343
a(I7
g1
tp1344
a(I0
g1
tp1345
a(I4
g1
tp1346
a(I0
g1
tp1347
a(I4
g1
tp1348
a(I5
g1
tp1349
a(I4
g1
tp1350
a(I5
g1
tp1351
a(I4
g1
tp1352
a(I2
g1
tp1353
a(I7
g1
tp1354
a(I5
g1
tp1355
a(I7
g1
tp1356
a(I4
g1
tp1357
a(I9
g1
tp1358
a(I7
g1
tp1359
a(I5
g1
tp1360
a(I7
g1
tp1361
a(I4
g1
tp1362
a(I9
g1
tp1363
a(I7
g1
tp1364
a(I5
g1
tp1365
a(I7
g1
tp1366
a(I4
g4
tp1367
a(I9
g1
tp1368
a(I2
g1
tp1369
a(I7
g1
tp1370
a(I7
g1
tp1371
a(I0
g1
tp1372
a(I4
g1
tp1373
a(I0
g1
tp1374
a(I4
g1
tp1375
a(I0
g1
tp1376
a(I9
g1
tp1377
a(I5
g1
tp1378
a(I0
g1
tp1379
a(I0
g1
tp1380
a(I9
g1
tp1381
a(I5
g1
tp1382
a(I0
g1
tp1383
a(I0
g1
tp1384
a(I9
g1
tp1385
a(I5
g1
tp1386
a(I0
g1
tp1387
a(I0
g1
tp1388
a(I9
g1
tp1389
a(I5
g1
tp1390
a(I0
g1
tp1391
a(I0
g1
tp1392
a(I9
g1
tp1393
a(I5
g1
tp1394
a(I0
g1
tp1395
a(I0
g1
tp1396
a(I9
g1
tp1397
a(I5
g1
tp1398
a(I0
g1
tp1399
a(I0
g1
tp1400
a(I9
g1
tp1401
a(I5
g1
tp1402
a(I0
g1
tp1403
a(I0
g1
tp1404
a(I9
g1
tp1405
a(I5
g1
tp1406
a(I0
g1
tp1407
a(I0
g1
tp1408
a(I7
g1
tp1409
a(I9
g1
tp1410
a(I7
g1
tp1411
a(I0
g1
tp1412
a(I7
g1
tp1413
a(I9
g1
tp1414
a(I7
g1
tp1415
a(I0
g1
tp1416
a(I7
g1
tp1417
a(I9
g1
tp1418
a(I7
g1
tp1419
a(I0
g1
tp1420
a(I7
g1
tp1421
a(I9
g1
tp1422
a(I7
g1
tp1423
a(I0
g1
tp1424
a(I7
g1
tp1425
a(I9
g1
tp1426
a(I7
g1
tp1427
a(I0
g1
tp1428
a(I7
g1
tp1429
a(I9
g1
tp1430
a(I7
g1
tp1431
a(I0
g1
tp1432
a(I7
g1
tp1433
a(I9
g1
tp1434
a(I7
g1
tp1435
a(I0
g1
tp1436
a(I7
g1
tp1437
a(I9
g1
tp1438
a(I0
g1
tp1439
a(I7
g1
tp1440
a(I0
g1
tp1441
a(I5
g1
tp1442
a(I7
g1
tp1443
a(I0
g1
tp1444
a(I0
g1
tp1445
a(I7
g1
tp1446
a(I9
g1
tp1447
a(I0
g1
tp1448
a(I7
g1
tp1449
a(I0
g1
tp1450
a(I5
g1
tp1451
a(I7
g1
tp1452
a(I0
g1
tp1453
a(I9
g1
tp1454
a(I7
g1
tp1455
a(I5
g1
tp1456
a(I7
g1
tp1457
a(I5
g1
tp1458
a(I7
g1
tp1459
a(I0
g1
tp1460
a(I7
g1
tp1461
a(I9
g1
tp1462
a(I5
g1
tp1463
a(I0
g1
tp1464
a(I7
g1
tp1465
a(I5
g1
tp1466
a(I0
g1
tp1467
a(I2
g1
tp1468
a(I0
g1
tp1469
a(I9
g1
tp1470
a(I7
g1
tp1471
a(I5
g1
tp1472
a(I0
g1
tp1473
a(I7
g1
tp1474
a(I0
g1
tp1475
a(I5
g1
tp1476
a(I0
g1
tp1477
a(I2
g1
tp1478
a(I0
g1
tp1479
a(I9
g1
tp1480
a(I0
g1
tp1481
a(I9
g1
tp1482
a(I9
g1
tp1483
a(I0
g1
tp1484
a(I9
g1
tp1485
a(I0
g1
tp1486
a(I9
g1
tp1487
a(I0
g1
tp1488
a(I7
g1
tp1489
a(I5
g1
tp1490
a(I5
S'maj7'
p1491
tp1492
a(I0
g1
tp1493
a(I7
g1
tp1494
a(I5
g1
tp1495
a(I5
S'maj7'
p1496
tp1497
a(I0
g1
tp1498
a(I9
g1
tp1499
a(I5
g1
tp1500
a(I0
g1
tp1501
a(I9
g1
tp1502
a(I5
g1
tp1503
a(I0
g1
tp1504
a(I9
g1
tp1505
a(I5
g1
tp1506
a(I0
g1
tp1507
a(I7
g1
tp1508
a(I9
g1
tp1509
a(I9
g1
tp1510
a(I0
g1
tp1511
a(I9
g1
tp1512
a(I0
g1
tp1513
a(I9
g1
tp1514
a(I0
g1
tp1515
a(I7
g1
tp1516
a(I5
g1
tp1517
a(I5
S'maj7'
p1518
tp1519
a(I0
g1
tp1520
a(I7
g1
tp1521
a(I5
g1
tp1522
a(I5
S'maj7'
p1523
tp1524
a(I0
g1
tp1525
a(I9
g1
tp1526
a(I5
g1
tp1527
a(I0
g1
tp1528
a(I9
g1
tp1529
a(I5
g1
tp1530
a(I0
g1
tp1531
a(I9
g1
tp1532
a(I5
g1
tp1533
a(I0
g1
tp1534
a(I7
g1
tp1535
a(I9
g1
tp1536
a(I5
g1
tp1537
a(I0
g1
tp1538
a(I9
g1
tp1539
a(I5
g1
tp1540
a(I0
g1
tp1541
a(I9
g1
tp1542
a(I5
g1
tp1543
a(I0
g1
tp1544
a(I7
g1
tp1545
a(I9
g1
tp1546
a(I9
g1
tp1547
a(I0
g1
tp1548
a(I7
g1
tp1549
a(I0
g1
tp1550
a(I5
g1
tp1551
a(I9
g1
tp1552
a(I0
g1
tp1553
a(I9
g1
tp1554
a(I5
g1
tp1555
a(I0
g1
tp1556
a(I9
g1
tp1557
a(I5
g1
tp1558
a(I0
g1
tp1559
a(I7
g1
tp1560
a(I9
g1
tp1561
a(I0
g1
tp1562
a(I9
g1
tp1563
a(I5
g1
tp1564
a(I0
g1
tp1565
a(I7
g1
tp1566
a(I9
g1
tp1567
a(I5
g1
tp1568
a(I0
g1
tp1569
a(I7
g1
tp1570
a(I9
g1
tp1571
a(I5
g1
tp1572
a(I0
g1
tp1573
a(I7
g1
tp1574
a(I9
g1
tp1575
a(I5
g1
tp1576
a(I0
g1
tp1577
a(I7
g1
tp1578
a(I9
g1
tp1579
a(I5
g1
tp1580
a(I0
g1
tp1581
a(I9
g1
tp1582
a(I5
g1
tp1583
a(I0
g1
tp1584
a(I9
g1
tp1585
a(I5
g1
tp1586
a(I0
g1
tp1587
a(I9
g1
tp1588
a(I5
g1
tp1589
a(I0
g1
tp1590
a(I9
g1
tp1591
a(I5
g1
tp1592
a(I0
g1
tp1593
a(I9
g1
tp1594
a(I5
g1
tp1595
a(I0
g1
tp1596
a(I9
g1
tp1597
a(I5
g1
tp1598
a(I0
g1
tp1599
a(I7
g1
tp1600
a(I9
g1
tp1601
a(I5
g1
tp1602
a(I0
g1
tp1603
a(I9
g1
tp1604
a(I5
g1
tp1605
a(I0
g1
tp1606
a(I7
g1
tp1607
a(I9
g1
tp1608
a(I5
g1
tp1609
a(I0
g1
tp1610
a(I7
g1
tp1611
a(I9
g1
tp1612
a(I5
g1
tp1613
a(I0
g1
tp1614
a(I7
g1
tp1615
a(I9
g1
tp1616
a(I5
g1
tp1617
a(I0
g1
tp1618
a(I7
g1
tp1619
a(I9
g1
tp1620
a(I5
g1
tp1621
a(I0
g1
tp1622
a(I9
g1
tp1623
a(I5
g1
tp1624
a(I0
g1
tp1625
a(I9
g1
tp1626
a(I5
g1
tp1627
a(I0
g1
tp1628
a(I9
g1
tp1629
a(I5
g1
tp1630
a(I0
g1
tp1631
a(I9
g1
tp1632
a(I5
g1
tp1633
a(I0
g1
tp1634
a(I9
g1
tp1635
a(I5
g1
tp1636
a(I0
g1
tp1637
a(I9
g1
tp1638
a(I5
g1
tp1639
a(I0
g1
tp1640
a(I7
g1
tp1641
a(I9
g1
tp1642
a(I5
g1
tp1643
a(I0
g1
tp1644
a(I7
g1
tp1645
a(I9
g1
tp1646
a(I5
g1
tp1647
a(I0
g1
tp1648
a(I7
g1
tp1649
a(I9
g1
tp1650
a(I5
g1
tp1651
a(I0
g1
tp1652
a(I7
g1
tp1653
a(I9
g1
tp1654
a(I5
g1
tp1655
a(I0
g1
tp1656
a(I7
g1
tp1657
a(I9
g1
tp1658
a(I5
g1
tp1659
a(I0
g1
tp1660
a(I7
g1
tp1661
a(I9
g1
tp1662
a(I5
g1
tp1663
a(I0
g1
tp1664
a(I7
g1
tp1665
a(I9
g1
tp1666
a(I5
g1
tp1667
a(I0
g1
tp1668
a(I7
g1
tp1669
a(I9
g1
tp1670
a(I5
g1
tp1671
a(I0
g1
tp1672
a(I7
g1
tp1673
a(I9
g1
tp1674
a(I5
g1
tp1675
a(I0
g1
tp1676
a(I9
g1
tp1677
a(I9
g1
tp1678
a(I9
g1
tp1679
a(I9
g1
tp1680
a(I9
g1
tp1681
a(I5
g1
tp1682
a(I0
g1
tp1683
a(I9
g1
tp1684
a(I5
g1
tp1685
a(I0
g1
tp1686
a(I7
g1
tp1687
a(I9
g1
tp1688
a(I5
g1
tp1689
a(I0
g1
tp1690
a(I7
g1
tp1691
a(I9
g1
tp1692
a(I5
g1
tp1693
a(I0
g1
tp1694
a(I7
g1
tp1695
a(I9
g1
tp1696
a(I5
g1
tp1697
a(I0
g1
tp1698
a(I7
g1
tp1699
a(I9
g1
tp1700
a(I5
g1
tp1701
a(I0
g1
tp1702
a(I7
g1
tp1703
a(I9
g1
tp1704
a(I5
g1
tp1705
a(I0
g1
tp1706
a(I7
g1
tp1707
a(I9
g1
tp1708
a(I5
g1
tp1709
a(I0
g1
tp1710
a(I0
g1
tp1711
a(I0
g1
tp1712
a(I9
g1
tp1713
a(I2
g4
tp1714
a(I7
g1
tp1715
a(I4
g1
tp1716
a(I9
g1
tp1717
a(I2
g4
tp1718
a(I7
g1
tp1719
a(I9
g1
tp1720
a(I2
g4
tp1721
a(I7
g1
tp1722
a(I0
g1
tp1723
a(I0
g1
tp1724
a(I9
g1
tp1725
a(I2
g4
tp1726
a(I7
g1
tp1727
a(I0
g1
tp1728
a(I9
g1
tp1729
a(I4
g1
tp1730
a(I7
g1
tp1731
a(I2
g4
tp1732
a(I9
g1
tp1733
a(I7
g1
tp1734
a(I2
g4
tp1735
a(I9
g1
tp1736
a(I7
g1
tp1737
a(I2
g4
tp1738
a(I9
g1
tp1739
a(I7
g1
tp1740
a(I0
g1
tp1741
a(I7
g1
tp1742
a(I0
g1
tp1743
a(I0
g1
tp1744
a(I7
g1
tp1745
a(I0
g1
tp1746
a(I0
g1
tp1747
a(I7
g1
tp1748
a(I9
g1
tp1749
a(I9
g1
tp1750
a(I7
g1
tp1751
a(I0
g1
tp1752
a(I0
g1
tp1753
a(I7
g1
tp1754
a(I0
g1
tp1755
a(I0
g1
tp1756
a(I7
g1
tp1757
a(I0
g1
tp1758
a(I0
g1
tp1759
a(I7
g1
tp1760
a(I9
g1
tp1761
a(I9
g1
tp1762
a(I7
g1
tp1763
a(I0
g1
tp1764
a(I0
g1
tp1765
a(I7
g1
tp1766
a(I0
g1
tp1767
a(I0
g1
tp1768
a(I7
g1
tp1769
a(I0
g1
tp1770
a(I0
g1
tp1771
a(I7
g1
tp1772
a(I9
g1
tp1773
a(I9
g1
tp1774
a(I7
g1
tp1775
a(I0
g1
tp1776
a(I0
g1
tp1777
a(I7
g1
tp1778
a(I0
g1
tp1779
a(I0
g1
tp1780
a(I7
g1
tp1781
a(I9
g1
tp1782
a(I9
g1
tp1783
a(I7
g1
tp1784
a(I0
g1
tp1785
a(I0
g1
tp1786
a(I7
g1
tp1787
a(I9
g1
tp1788
a(I9
g1
tp1789
a(I7
g1
tp1790
a(I0
g1
tp1791
a(I0
g1
tp1792
a(I7
g1
tp1793
a(I0
g1
tp1794
a(I0
g1
tp1795
a(I7
g1
tp1796
a(I0
g1
tp1797
a(I0
g1
tp1798
a(I7
g1
tp1799
a(I0
g1
tp1800
a(I0
g1
tp1801
a(I7
g1
tp1802
a(I9
g1
tp1803
a(I9
g1
tp1804
a(I7
g1
tp1805
a(I0
g1
tp1806
a(I0
g1
tp1807
a(I7
g1
tp1808
a(I0
g1
tp1809
a(I0
g1
tp1810
a(I7
g1
tp1811
a(I0
g1
tp1812
a(I0
g1
tp1813
a(I7
g1
tp1814
a(I9
g1
tp1815
a(I9
g1
tp1816
a(I7
g1
tp1817
a(I0
g1
tp1818
a(I0
g1
tp1819
a(I7
g1
tp1820
a(I0
g1
tp1821
a(I0
g1
tp1822
a(I7
g1
tp1823
a(I9
g1
tp1824
a(I9
g1
tp1825
a(I7
g1
tp1826
a(I0
g1
tp1827
a(I0
g1
tp1828
a(I7
g1
tp1829
a(I9
g1
tp1830
a(I9
g1
tp1831
a(I7
g1
tp1832
a(I0
g1
tp1833
a(I0
g1
tp1834
a(I7
g1
tp1835
a(I9
g1
tp1836
a(I9
g1
tp1837
a(I7
g1
tp1838
a(I0
g1
tp1839
a(I0
g1
tp1840
a(I7
g1
tp1841
a(I9
g1
tp1842
a(I9
g1
tp1843
a(I7
g1
tp1844
a(I0
g1
tp1845
a(I0
g1
tp1846
a(I7
g1
tp1847
a(I0
g1
tp1848
a(I0
g1
tp1849
a(I7
g1
tp1850
a(I0
g1
tp1851
a(I7
g1
tp1852
a(I0
g1
tp1853
a(I0
g1
tp1854
a(I7
g1
tp1855
a(I9
g1
tp1856
a(I9
g1
tp1857
a(I7
g1
tp1858
a(I0
g1
tp1859
a(I0
g1
tp1860
a(I7
g1
tp1861
a(I9
g1
tp1862
a(I9
g1
tp1863
a(I7
g1
tp1864
a(I0
g1
tp1865
a(I0
g1
tp1866
a(I7
g1
tp1867
a(I9
g1
tp1868
a(I9
g1
tp1869
a(I7
g1
tp1870
a(I0
g1
tp1871
a(I0
g1
tp1872
a(I7
g1
tp1873
a(I9
g1
tp1874
a(I9
g1
tp1875
a(I7
g1
tp1876
a(I0
g1
tp1877
a(I0
g1
tp1878
a(I7
g1
tp1879
a(I9
g1
tp1880
a(I9
g1
tp1881
a(I7
g1
tp1882
a(I0
g1
tp1883
a(I0
g1
tp1884
a(I7
g1
tp1885
a(I0
g1
tp1886
a(I0
g1
tp1887
a(I5
g1
tp1888
a(I0
g1
tp1889
a(I9
g1
tp1890
a(I7
g1
tp1891
a(I5
g1
tp1892
a(I0
g1
tp1893
a(I9
g1
tp1894
a(I7
g1
tp1895
a(I5
g1
tp1896
a(I0
g1
tp1897
a(I9
g1
tp1898
a(I7
g1
tp1899
a(I5
g1
tp1900
a(I0
g1
tp1901
a(I9
g1
tp1902
a(I7
g1
tp1903
a(I5
g1
tp1904
a(I0
g1
tp1905
a(I9
g1
tp1906
a(I7
g1
tp1907
a(I5
g1
tp1908
a(I0
g1
tp1909
a(I9
g1
tp1910
a(I7
g1
tp1911
a(I5
g1
tp1912
a(I0
g1
tp1913
a(I9
g1
tp1914
a(I7
g1
tp1915
a(I5
g1
tp1916
a(I0
g1
tp1917
a(I9
g1
tp1918
a(I7
g1
tp1919
a(I5
g1
tp1920
a(I0
g1
tp1921
a(I9
g1
tp1922
a(I7
g1
tp1923
a(I5
g1
tp1924
a(I0
g1
tp1925
a(I9
g1
tp1926
a(I7
g1
tp1927
a(I5
g1
tp1928
a(I0
g1
tp1929
a(I9
g1
tp1930
a(I7
g1
tp1931
a(I5
g1
tp1932
a(I0
g1
tp1933
a(I9
g1
tp1934
a(I7
g1
tp1935
a(I5
g1
tp1936
a(I0
g1
tp1937
a(I9
g1
tp1938
a(I7
g1
tp1939
a(I5
g1
tp1940
a(I0
g1
tp1941
a(I9
g1
tp1942
a(I7
g1
tp1943
a(I5
g1
tp1944
a(I0
g1
tp1945
a(I9
g1
tp1946
a(I7
g1
tp1947
a(I5
g1
tp1948
a(I0
g1
tp1949
a(I9
g1
tp1950
a(I7
g1
tp1951
a(I5
g1
tp1952
a(I0
g1
tp1953
a(I9
g1
tp1954
a(I7
g1
tp1955
a(I5
g1
tp1956
a(I0
g1
tp1957
a(I9
g1
tp1958
a(I7
g1
tp1959
a(I5
g1
tp1960
a(I0
g1
tp1961
a(I9
g1
tp1962
a(I7
g1
tp1963
a(I5
g1
tp1964
a(I0
g1
tp1965
a(I9
g1
tp1966
a(I7
g1
tp1967
a(I5
g1
tp1968
a(I0
g1
tp1969
a(I9
g1
tp1970
a(I7
g1
tp1971
a(I5
g1
tp1972
a(I0
g1
tp1973
a(I9
g1
tp1974
a(I7
g1
tp1975
a(I5
g1
tp1976
a(I0
g1
tp1977
a(I9
g1
tp1978
a(I7
g1
tp1979
a(I5
g1
tp1980
a(I0
g1
tp1981
a(I9
g1
tp1982
a(I7
g1
tp1983
a(I5
g1
tp1984
a(I0
g1
tp1985
a(I9
g1
tp1986
a(I7
g1
tp1987
a(I5
g1
tp1988
a(I5
g1
tp1989
a(I0
g1
tp1990
a(I9
g1
tp1991
a(I7
g1
tp1992
a(I5
g1
tp1993
a(I0
g1
tp1994
a(I9
g1
tp1995
a(I7
g1
tp1996
a(I5
g1
tp1997
a(I0
g1
tp1998
a(I9
g1
tp1999
a(I7
g1
tp2000
a(I5
g1
tp2001
a(I0
g1
tp2002
a(I9
g1
tp2003
a(I7
g1
tp2004
a(I5
g1
tp2005
a(I0
g1
tp2006
a(I9
g1
tp2007
a(I7
g1
tp2008
a(I5
g1
tp2009
a(I0
g1
tp2010
a(I9
g1
tp2011
a(I7
g1
tp2012
a(I5
g1
tp2013
a(I0
g1
tp2014
a(I9
g1
tp2015
a(I7
g1
tp2016
a(I5
g1
tp2017
a(I0
g1
tp2018
a(I9
g1
tp2019
a(I7
g1
tp2020
a(I5
g1
tp2021
a(I0
g1
tp2022
a(I9
g1
tp2023
a(I7
g1
tp2024
a(I5
g1
tp2025
a(I0
g1
tp2026
a(I9
g1
tp2027
a(I7
g1
tp2028
a(I5
g1
tp2029
a(I0
g1
tp2030
a(I9
g1
tp2031
a(I7
g1
tp2032
a(I5
g1
tp2033
a(I0
g1
tp2034
a(I9
g1
tp2035
a(I7
g1
tp2036
a(I5
g1
tp2037
a(I5
g1
tp2038
a(I0
g1
tp2039
a(I9
g1
tp2040
a(I7
g1
tp2041
a(I5
g1
tp2042
a(I0
g1
tp2043
a(I9
g1
tp2044
a(I7
g1
tp2045
a(I5
g1
tp2046
a(I0
g1
tp2047
a(I9
g1
tp2048
a(I7
g1
tp2049
a(I5
g1
tp2050
a(I0
g1
tp2051
a(I9
g1
tp2052
a(I7
g1
tp2053
a(I5
g1
tp2054
a(I0
g1
tp2055
a(I9
g1
tp2056
a(I7
g1
tp2057
a(I5
g1
tp2058
a(I0
g1
tp2059
a(I9
g1
tp2060
a(I7
g1
tp2061
a(I5
g1
tp2062
a(I0
g1
tp2063
a(I9
g1
tp2064
a(I7
g1
tp2065
a(I5
g1
tp2066
a(I0
g1
tp2067
a(I9
g1
tp2068
a(I7
g1
tp2069
a(I5
g1
tp2070
a(I5
g1
tp2071
a(I0
g1
tp2072
a(I9
g1
tp2073
a(I7
g1
tp2074
a(I5
g1
tp2075
a(I0
g1
tp2076
a(I9
g1
tp2077
a(I7
g1
tp2078
a(I5
g1
tp2079
a(I0
g1
tp2080
a(I9
g1
tp2081
a(I7
g1
tp2082
a(I5
g1
tp2083
a(I0
g1
tp2084
a(I9
g1
tp2085
a(I7
g1
tp2086
a(I5
g1
tp2087
a(I0
g1
tp2088
a(I9
g1
tp2089
a(I7
g1
tp2090
a(I5
g1
tp2091
a(I0
g1
tp2092
a(I9
g1
tp2093
a(I7
g1
tp2094
a(I5
g1
tp2095
a(I0
g1
tp2096
a(I9
g1
tp2097
a(I7
g1
tp2098
a(I5
g1
tp2099
a(I0
g1
tp2100
a(I9
g1
tp2101
a(I7
g1
tp2102
a(I5
g1
tp2103
a(I5
g1
tp2104
a(I0
g1
tp2105
a(I9
g1
tp2106
a(I7
g1
tp2107
a(I5
g1
tp2108
a(I0
g1
tp2109
a(I9
g1
tp2110
a(I7
g1
tp2111
a(I5
g1
tp2112
a(I0
g1
tp2113
a(I9
g1
tp2114
a(I7
g1
tp2115
a(I5
g1
tp2116
a(I0
g1
tp2117
a(I9
g1
tp2118
a(I7
g1
tp2119
a(I5
g1
tp2120
a(I0
g1
tp2121
a(I9
g1
tp2122
a(I7
g1
tp2123
a(I5
g1
tp2124
a(I0
g1
tp2125
a(I9
g1
tp2126
a(I7
g1
tp2127
a(I5
g1
tp2128
a(I0
g1
tp2129
a(I9
g1
tp2130
a(I7
g1
tp2131
a(I5
g1
tp2132
a(I0
g1
tp2133
a(I9
g1
tp2134
a(I7
g1
tp2135
a(I5
g1
tp2136
a(I0
g1
tp2137
a(I9
g1
tp2138
a(I7
g1
tp2139
a(I5
g1
tp2140
a(I0
g1
tp2141
a(I9
g1
tp2142
a(I7
g1
tp2143
a(I5
g1
tp2144
a(I0
g1
tp2145
a(I9
g1
tp2146
a(I7
g1
tp2147
a(I5
g1
tp2148
a(I0
g1
tp2149
a(I9
g1
tp2150
a(I7
g1
tp2151
a(I5
g1
tp2152
a(I0
g1
tp2153
a(I9
g1
tp2154
a(I7
g1
tp2155
a(I5
g1
tp2156
a(I0
g1
tp2157
a(I9
g1
tp2158
a(I7
g1
tp2159
a(I5
g1
tp2160
a(I2
g1
tp2161
a(I5
g1
tp2162
a(I0
g1
tp2163
a(I7
g1
tp2164
a(I2
g1
tp2165
a(I5
g1
tp2166
a(I0
g1
tp2167
a(I7
g1
tp2168
a(I2
g1
tp2169
a(I5
g1
tp2170
a(I0
g1
tp2171
a(I7
g1
tp2172
a(I2
g1
tp2173
a(I5
g1
tp2174
a(I0
g1
tp2175
a(I7
g1
tp2176
a(I2
g1
tp2177
a(I5
g1
tp2178
a(I0
g1
tp2179
a(I7
g1
tp2180
a(I2
g1
tp2181
a(I5
g1
tp2182
a(I0
g1
tp2183
a(I7
g1
tp2184
a(I2
g1
tp2185
a(I5
g1
tp2186
a(I0
g1
tp2187
a(I7
g1
tp2188
a(I2
g1
tp2189
a(I5
g1
tp2190
a(I0
g1
tp2191
a(I7
g1
tp2192
a(I2
g1
tp2193
a(I5
g1
tp2194
a(I0
g1
tp2195
a(I7
g1
tp2196
a(I2
g1
tp2197
a(I5
g1
tp2198
a(I0
g1
tp2199
a(I7
g1
tp2200
a(I2
g1
tp2201
a(I5
g1
tp2202
a(I0
g1
tp2203
a(I7
g1
tp2204
a(I2
g1
tp2205
a(I5
g1
tp2206
a(I0
g1
tp2207
a(I7
g1
tp2208
a(I2
g1
tp2209
a(I5
g1
tp2210
a(I0
g1
tp2211
a(I7
g1
tp2212
a(I2
g1
tp2213
a(I5
g1
tp2214
a(I0
g1
tp2215
a(I7
g1
tp2216
a(I2
g1
tp2217
a(I5
g1
tp2218
a(I0
g1
tp2219
a(I7
g1
tp2220
a(I2
g1
tp2221
a(I5
g1
tp2222
a(I0
g1
tp2223
a(I7
g1
tp2224
a(I2
g1
tp2225
a(I5
g1
tp2226
a(I0
g1
tp2227
a(I7
g1
tp2228
a(I2
g1
tp2229
a(I9
g1
tp2230
a(I5
g1
tp2231
a(I0
g1
tp2232
a(I2
g1
tp2233
a(I9
g1
tp2234
a(I5
g1
tp2235
a(I0
g1
tp2236
a(I2
g1
tp2237
a(I9
g1
tp2238
a(I5
g1
tp2239
a(I0
g1
tp2240
a(I2
g1
tp2241
a(I9
g1
tp2242
a(I5
g1
tp2243
a(I0
g1
tp2244
a(I2
g1
tp2245
a(I9
g1
tp2246
a(I5
g1
tp2247
a(I5
g1
tp2248
a(I0
g1
tp2249
a(I7
g1
tp2250
a(I5
g1
tp2251
a(I0
g1
tp2252
a(I7
g1
tp2253
a(I5
g1
tp2254
a(I0
g1
tp2255
a(I7
g1
tp2256
a(I9
g1
tp2257
a(I0
g1
tp2258
a(I5
g1
tp2259
a(I2
g1
tp2260
a(I9
g1
tp2261
a(I5
g1
tp2262
a(I0
g1
tp2263
a(I2
g1
tp2264
a(I9
g1
tp2265
a(I5
g1
tp2266
a(I0
g1
tp2267
a(I2
g1
tp2268
a(I9
g1
tp2269
a(I5
g1
tp2270
a(I0
g1
tp2271
a(I2
g1
tp2272
a(I9
g1
tp2273
a(I5
g1
tp2274
a(I0
g1
tp2275
a(I2
g1
tp2276
a(I9
g1
tp2277
a(I5
g1
tp2278
a(I5
g1
tp2279
a(I5
g1
tp2280
a(I0
g1
tp2281
a(I7
g1
tp2282
a(I5
g1
tp2283
a(I0
g1
tp2284
a(I7
g1
tp2285
a(I5
g1
tp2286
a(I0
g1
tp2287
a(I7
g1
tp2288
a(I9
g1
tp2289
a(I0
g1
tp2290
a(I5
g1
tp2291
a(I5
g1
tp2292
a(I0
g1
tp2293
a(I9
g1
tp2294
a(I7
g1
tp2295
a(I5
g1
tp2296
a(I0
g1
tp2297
a(I7
g1
tp2298
a(I5
g1
tp2299
a(I0
g1
tp2300
a(I7
g1
tp2301
a(I5
g1
tp2302
a(I0
g1
tp2303
a(I7
g1
tp2304
a(I9
g1
tp2305
a(I0
g1
tp2306
a(I5
g1
tp2307
a(I5
g1
tp2308
a(I0
g1
tp2309
a(I7
g1
tp2310
a(I2
g1
tp2311
a(I9
g1
tp2312
a(I5
g1
tp2313
a(I0
g1
tp2314
a(I9
g1
tp2315
a(I7
g1
tp2316
a(I0
S'5'
p2317
tp2318
a(I5
g2317
tp2319
a(I9
g1
tp2320
a(I7
g1
tp2321
a(I9
g1
tp2322
a(I7
g1
tp2323
a(I9
g1
tp2324
a(I7
g1
tp2325
a(I9
g1
tp2326
a(I7
g1
tp2327
a(I9
g1
tp2328
a(I7
g1
tp2329
a(I9
g1
tp2330
a(I7
g1
tp2331
a(I9
g1
tp2332
a(I7
g1
tp2333
a(I9
g1
tp2334
a(I7
g1
tp2335
a(I0
g2317
tp2336
a(I7
g1
tp2337
a(I9
g1
tp2338
a(I5
g2317
tp2339
a(I0
g2317
tp2340
a(I7
g1
tp2341
a(I9
g1
tp2342
a(I5
g2317
tp2343
a(I0
g2317
tp2344
a(I7
g1
tp2345
a(I9
g1
tp2346
a(I5
g1
tp2347
a(I9
g1
tp2348
a(I0
g1
tp2349
a(I7
g1
tp2350
a(I9
g1
tp2351
a(I9
g1
tp2352
a(I0
g1
tp2353
a(I9
g1
tp2354
a(I0
g1
tp2355
a(I9
g1
tp2356
a(I0
g1
tp2357
a(I7
g1
tp2358
a(I9
g1
tp2359
a(I9
g1
tp2360
a(I0
g1
tp2361
a(I9
g1
tp2362
a(I0
g1
tp2363
a(I9
g1
tp2364
a(I0
g1
tp2365
a(I7
g1
tp2366
a(I9
g1
tp2367
a(I0
g1
tp2368
a(I7
g1
tp2369
a(I5
g1
tp2370
a(I0
g1
tp2371
a(I7
g1
tp2372
a(I5
g1
tp2373
a(I0
g1
tp2374
a(I7
g1
tp2375
a(I5
g1
tp2376
a(I0
g1
tp2377
a(I7
g1
tp2378
a(I5
g1
tp2379
a(I9
g1
tp2380
a(I0
g1
tp2381
a(I9
g1
tp2382
a(I0
g1
tp2383
a(I9
g1
tp2384
a(I0
g1
tp2385
a(I7
g1
tp2386
a(I9
g1
tp2387
a(I0
g1
tp2388
a(I7
g1
tp2389
a(I5
g1
tp2390
a(I0
g1
tp2391
a(I7
g1
tp2392
a(I5
g1
tp2393
a(I0
g1
tp2394
a(I7
g1
tp2395
a(I5
g1
tp2396
a(I0
g1
tp2397
a(I7
g1
tp2398
a(I5
g1
tp2399
a(I0
g1
tp2400
a(I7
g1
tp2401
a(I5
g1
tp2402
a(I0
g1
tp2403
a(I7
g1
tp2404
a(I5
g1
tp2405
a(I9
g1
tp2406
a(I7
g1
tp2407
a(I9
g1
tp2408
a(I7
g1
tp2409
a(I9
g1
tp2410
a(I7
g1
tp2411
a(I9
g1
tp2412
a(I7
g1
tp2413
a(I9
g1
tp2414
a(I7
g1
tp2415
a(I9
g1
tp2416
a(I7
g1
tp2417
a(I9
g1
tp2418
a(I7
g1
tp2419
a(I9
g1
tp2420
a(I7
g1
tp2421
a(I9
g1
tp2422
a(I7
g1
tp2423
a(I9
g1
tp2424
a(I7
g1
tp2425
a(I9
g1
tp2426
a(I7
g1
tp2427
a(I9
g1
tp2428
a(I7
g1
tp2429
a(I9
g1
tp2430
a(I7
g1
tp2431
a(I9
g1
tp2432
a(I7
g1
tp2433
a(I9
g1
tp2434
a(I7
g1
tp2435
a(I9
g1
tp2436
a(I7
g1
tp2437
a(I9
g1
tp2438
a(I7
g1
tp2439
a(I9
g1
tp2440
a(I7
g1
tp2441
a(I9
g1
tp2442
a(I7
g1
tp2443
a(I9
g1
tp2444
a(I7
g1
tp2445
a(I9
g1
tp2446
a(I7
g1
tp2447
a(I5
g1
tp2448
a(I7
g1
tp2449
a(I9
g1
tp2450
a(I7
g1
tp2451
a(I5
g1
tp2452
a(I7
g1
tp2453
a(I9
g1
tp2454
a(I7
g1
tp2455
a(I5
g1
tp2456
a(I7
g1
tp2457
a(I9
g1
tp2458
a(I7
g1
tp2459
a(I5
g1
tp2460
a(I7
g1
tp2461
a(I9
g1
tp2462
a(I7
g1
tp2463
a(I5
g1
tp2464
a(I7
g1
tp2465
a(I9
g1
tp2466
a(I7
g1
tp2467
a(I5
g1
tp2468
a(I7
g1
tp2469
a(I9
g1
tp2470
a(I7
g1
tp2471
a(I5
g1
tp2472
a(I7
g1
tp2473
a(I9
g1
tp2474
a(I7
g1
tp2475
a(I5
g1
tp2476
a(I7
g1
tp2477
a(I9
g1
tp2478
a(I7
g1
tp2479
a(I9
g1
tp2480
a(I7
g1
tp2481
a(I9
g1
tp2482
a(I7
g1
tp2483
a(I9
g1
tp2484
a(I7
g1
tp2485
a(I9
g1
tp2486
a(I7
g1
tp2487
a(I5
g1
tp2488
a(I7
g1
tp2489
a(I9
g1
tp2490
a(I7
g1
tp2491
a(I9
g1
tp2492
a(I7
g1
tp2493
a(I9
g1
tp2494
a(I7
g1
tp2495
a(I5
g1
tp2496
a(I7
g1
tp2497
a(I9
g1
tp2498
a(I7
g1
tp2499
a(I5
g1
tp2500
a(I7
g1
tp2501
a(I9
g1
tp2502
a(I7
g1
tp2503
a(I5
g1
tp2504
a(I7
g1
tp2505
a(I9
g1
tp2506
a(I7
g1
tp2507
a(I5
g1
tp2508
a(I7
g1
tp2509
a(I9
g1
tp2510
a(I7
g1
tp2511
a(I5
g1
tp2512
a(I7
g1
tp2513
a(I9
g1
tp2514
a(I7
g1
tp2515
a(I5
g1
tp2516
a(I7
g1
tp2517
a(I9
g1
tp2518
a(I7
g1
tp2519
a(I5
g1
tp2520
a(I7
g1
tp2521
a(I9
g1
tp2522
a(I7
g1
tp2523
a(I5
g1
tp2524
a(I9
g1
tp2525
a(I7
g1
tp2526
a(I9
g1
tp2527
a(I7
g1
tp2528
a(I9
g1
tp2529
a(I7
g1
tp2530
a(I9
g1
tp2531
a(I7
g1
tp2532
a(I9
g1
tp2533
a(I7
g1
tp2534
a(I9
g1
tp2535
a(I7
g1
tp2536
a(I9
g1
tp2537
a(I7
g1
tp2538
a(I9
g1
tp2539
a(I7
g1
tp2540
a(I9
g1
tp2541
a(I7
g1
tp2542
a(I9
g1
tp2543
a(I7
g1
tp2544
a(I9
g1
tp2545
a(I7
g1
tp2546
a(I9
g1
tp2547
a(I7
g1
tp2548
a(I9
g1
tp2549
a(I7
g1
tp2550
a(I5
g1
tp2551
a(I7
g1
tp2552
a(I9
g1
tp2553
a(I7
g1
tp2554
a(I5
g1
tp2555
a(I7
g1
tp2556
a(I9
g1
tp2557
a(I7
g1
tp2558
a(I5
g1
tp2559
a(I7
g1
tp2560
a(I9
g1
tp2561
a(I7
g1
tp2562
a(I5
g1
tp2563
a(I7
g1
tp2564
a(I9
g1
tp2565
a(I7
g1
tp2566
a(I9
g1
tp2567
a(I7
g1
tp2568
a(I9
g1
tp2569
a(I7
g1
tp2570
a(I9
g1
tp2571
a(I7
g1
tp2572
a(I9
g1
tp2573
a(I7
g1
tp2574
a(I5
g1
tp2575
a(I7
g1
tp2576
a(I9
g1
tp2577
a(I7
g1
tp2578
a(I9
g1
tp2579
a(I7
g1
tp2580
a(I5
g1
tp2581
a(I9
g1
tp2582
a(I7
g1
tp2583
a(I5
g1
tp2584
a(I9
g1
tp2585
a(I7
g1
tp2586
a(I5
g1
tp2587
a(I9
g1
tp2588
a(I7
g1
tp2589
a(I5
g1
tp2590
a(I9
g1
tp2591
a(I7
g1
tp2592
a(I9
g1
tp2593
a(I7
g1
tp2594
a(I5
g1
tp2595
a(I7
g1
tp2596
a(I9
g1
tp2597
a(I7
g1
tp2598
a(I5
g1
tp2599
a(I7
g1
tp2600
a(I9
g1
tp2601
a(I7
g1
tp2602
a(I5
g1
tp2603
a(I7
g1
tp2604
a(I5
g1
tp2605
a(I5
S'maj7'
p2606
tp2607
a(I9
g1
tp2608
a(I0
g1
tp2609
a(I0
g1
tp2610
a(I7
g1
tp2611
a(I2
g1
tp2612
a(I4
g1
tp2613
a(I0
g1
tp2614
a(I0
g1
tp2615
a(I9
g1
tp2616
a(I5
g1
tp2617
a(I0
g1
tp2618
a(I0
g1
tp2619
a(I9
g1
tp2620
a(I5
g1
tp2621
a(I0
g1
tp2622
a(I0
g1
tp2623
a(I9
g1
tp2624
a(I5
g1
tp2625
a(I0
g1
tp2626
a(I0
g1
tp2627
a(I9
g1
tp2628
a(I5
g1
tp2629
a(I7
g1
tp2630
a(I9
g1
tp2631
a(I5
g1
tp2632
a(I7
g1
tp2633
a(I9
g1
tp2634
a(I5
g1
tp2635
a(I5
S'maj7'
p2636
tp2637
a(I5
g1
tp2638
a(I0
g1
tp2639
a(I7
g1
tp2640
a(I9
g1
tp2641
a(I5
g1
tp2642
a(I0
g1
tp2643
a(I7
g1
tp2644
a(I9
g1
tp2645
a(I5
g1
tp2646
a(I0
g1
tp2647
a(I7
g1
tp2648
a(I9
g1
tp2649
a(I5
g1
tp2650
a(I0
g1
tp2651
a(I7
g1
tp2652
a(I9
g1
tp2653
a(I5
g1
tp2654
a(I0
g1
tp2655
a(I7
g1
tp2656
a(I9
g1
tp2657
a(I5
g1
tp2658
a(I0
g1
tp2659
a(I0
g1
tp2660
a(I9
g1
tp2661
a(I5
g1
tp2662
a(I0
g1
tp2663
a(I0
g1
tp2664
a(I9
g1
tp2665
a(I5
g1
tp2666
a(I7
g1
tp2667
a(I9
g1
tp2668
a(I5
g1
tp2669
a(I5
g1
tp2670
a(I7
g1
tp2671
a(I9
g1
tp2672
a(I5
g1
tp2673
a(I5
S'maj7'
p2674
tp2675
a(I5
g1
tp2676
a(I0
g1
tp2677
a(I7
g1
tp2678
a(I9
g1
tp2679
a(I5
g1
tp2680
a(I0
g1
tp2681
a(I7
g1
tp2682
a(I9
g1
tp2683
a(I5
g1
tp2684
a(I0
g1
tp2685
a(I7
g1
tp2686
a(I9
g1
tp2687
a(I5
g1
tp2688
a(I0
g1
tp2689
a(I7
g1
tp2690
a(I9
g1
tp2691
a(I5
g1
tp2692
a(I7
g1
tp2693
a(I9
g1
tp2694
a(I5
g1
tp2695
a(I2
g1
tp2696
a(I4
g1
tp2697
a(I5
g1
tp2698
a(I0
g1
tp2699
a(I7
g1
tp2700
a(I9
g1
tp2701
a(I5
g1
tp2702
a(I0
g1
tp2703
a(I7
g1
tp2704
a(I9
g1
tp2705
a(I5
g1
tp2706
a(I0
g1
tp2707
a(I7
g1
tp2708
a(I9
g1
tp2709
a(I5
g1
tp2710
a(I0
g1
tp2711
a(I7
g1
tp2712
a(I9
g1
tp2713
a(I5
g1
tp2714
a(I0
g1
tp2715
a(I7
g1
tp2716
a(I9
g1
tp2717
a(I5
g1
tp2718
a(I0
g1
tp2719
a(I7
g1
tp2720
a(I9
g1
tp2721
a(I5
g1
tp2722
a(I0
g1
tp2723
a(I7
g1
tp2724
a(I9
g1
tp2725
a(I5
g1
tp2726
a(I0
g1
tp2727
a(I7
g1
tp2728
a(I9
g1
tp2729
a(I5
g1
tp2730
a(I0
g1
tp2731
a(I7
g1
tp2732
a(I9
g1
tp2733
a(I5
g1
tp2734
a(I0
g1
tp2735
a(I7
g1
tp2736
a(I9
g1
tp2737
a(I5
g1
tp2738
a(I4
g4
tp2739
a(I0
g1
tp2740
a(I7
g1
tp2741
a(I9
g1
tp2742
a(I5
g1
tp2743
a(I0
g1
tp2744
a(I7
g1
tp2745
a(I9
g1
tp2746
a(I5
g1
tp2747
a(I0
g1
tp2748
a(I7
g1
tp2749
a(I9
g1
tp2750
a(I5
g1
tp2751
a(I9
g1
tp2752
a(I5
g1
tp2753
a(I0
g1
tp2754
a(I7
g1
tp2755
a(I9
g1
tp2756
a(I5
g1
tp2757
a(I4
g4
tp2758
a(I5
g1
tp2759
a(I0
g1
tp2760
a(I7
g1
tp2761
a(I9
g1
tp2762
a(I7
g1
tp2763
a(I5
g1
tp2764
a(I0
g1
tp2765
a(I7
g1
tp2766
a(I5
g1
tp2767
a(I0
g1
tp2768
a(I7
g1
tp2769
a(I9
g1
tp2770
a(I7
g1
tp2771
a(I5
g1
tp2772
a(I7
g1
tp2773
a(I5
g1
tp2774
a(I0
g1
tp2775
a(I7
g1
tp2776
a(I7
g1
tp2777
a(I5
g1
tp2778
a(I0
g1
tp2779
a(I7
g1
tp2780
a(I2
g1
tp2781
a(I0
g1
tp2782
a(I7
g1
tp2783
a(I9
g1
tp2784
a(I5
g1
tp2785
a(I0
g1
tp2786
a(I7
g1
tp2787
a(I9
g1
tp2788
a(I5
g1
tp2789
a(I0
g1
tp2790
a(I7
g1
tp2791
a(I9
g1
tp2792
a(I4
g4
tp2793
a(I5
g1
tp2794
a(I0
g1
tp2795
a(I7
g1
tp2796
a(I9
g1
tp2797
a(I7
g1
tp2798
a(I5
g1
tp2799
a(I0
g1
tp2800
a(I7
g1
tp2801
a(I5
g1
tp2802
a(I0
g1
tp2803
a(I7
g1
tp2804
a(I9
g1
tp2805
a(I7
g1
tp2806
a(I5
g1
tp2807
a(I7
g1
tp2808
a(I5
g1
tp2809
a(I0
g1
tp2810
a(I7
g1
tp2811
a(I7
g1
tp2812
a(I5
g1
tp2813
a(I0
g1
tp2814
a(I7
g1
tp2815
a(I0
g1
tp2816
a(I7
g1
tp2817
a(I9
g1
tp2818
a(I5
g1
tp2819
a(I0
g1
tp2820
a(I7
g1
tp2821
a(I9
g1
tp2822
a(I5
g1
tp2823
a(I9
g1
tp2824
a(I5
g1
tp2825
a(I0
g1
tp2826
a(I7
g1
tp2827
a(I9
g1
tp2828
a(I5
g1
tp2829
a(I4
g4
tp2830
a(I5
g1
tp2831
a(I0
g1
tp2832
a(I7
g1
tp2833
a(I9
g1
tp2834
a(I7
g1
tp2835
a(I5
g1
tp2836
a(I0
g1
tp2837
a(I7
g1
tp2838
a(I5
g1
tp2839
a(I0
g1
tp2840
a(I7
g1
tp2841
a(I9
g1
tp2842
a(I7
g1
tp2843
a(I5
g1
tp2844
a(I7
g1
tp2845
a(I5
g1
tp2846
a(I0
g1
tp2847
a(I7
g1
tp2848
a(I9
g1
tp2849
a(I7
g1
tp2850
a(I5
g1
tp2851
a(I0
g1
tp2852
a(I7
g1
tp2853
a(I5
g1
tp2854
a(I0
g1
tp2855
a(I7
g1
tp2856
a(I9
g1
tp2857
a(I7
g1
tp2858
a(I5
g1
tp2859
a(I7
g1
tp2860
a(I5
g1
tp2861
a(I0
g1
tp2862
a(I7
g1
tp2863
a(I7
g1
tp2864
a(I5
g1
tp2865
a(I0
g1
tp2866
a(I7
g1
tp2867
a(I5
g1
tp2868
a(I0
g1
tp2869
a(I9
g1
tp2870
a(I5
g1
tp2871
a(I2
g1
tp2872
a(I7
g1
tp2873
a(I0
g1
tp2874
a(I9
g1
tp2875
a(I5
g1
tp2876
a(I2
g1
tp2877
a(I7
g1
tp2878
a(I5
g1
tp2879
a(I7
g1
tp2880
a(I0
g1
tp2881
a(I4
g1
tp2882
a(I9
g1
tp2883
a(I5
g1
tp2884
a(I7
g1
tp2885
a(I0
g1
tp2886
a(I4
g1
tp2887
a(I9
g1
tp2888
a(I5
g1
tp2889
a(I0
g1
tp2890
a(I7
g1
tp2891
a(I0
g1
tp2892
a(I9
g1
tp2893
a(I5
g1
tp2894
a(I2
g1
tp2895
a(I7
g1
tp2896
a(I0
g1
tp2897
a(I4
g1
tp2898
a(I9
g1
tp2899
a(I5
g1
tp2900
a(I0
g1
tp2901
a(I7
g1
tp2902
a(I0
g1
tp2903
a(I5
g1
tp2904
a(I0
g1
tp2905
a(I7
g1
tp2906
a(I0
g1
tp2907
a(I5
g1
tp2908
a(I0
g1
tp2909
a(I7
g1
tp2910
a(I0
g1
tp2911
a(I4
g1
tp2912
a(I9
g1
tp2913
a(I5
g1
tp2914
a(I0
g1
tp2915
a(I7
g1
tp2916
a(I5
g1
tp2917
a(I7
g1
tp2918
a(I0
g1
tp2919
a(I4
g1
tp2920
a(I9
g1
tp2921
a(I5
g1
tp2922
a(I7
g1
tp2923
a(I0
g1
tp2924
a(I5
g1
tp2925
a(I9
g1
tp2926
a(I7
g1
tp2927
a(I0
g1
tp2928
a(I5
g1
tp2929
a(I9
g1
tp2930
a(I7
g1
tp2931
a(I0
g1
tp2932
a(I5
g1
tp2933
a(I9
g1
tp2934
a(I7
g1
tp2935
a(I0
g1
tp2936
a(I5
g1
tp2937
a(I9
g1
tp2938
a(I7
g1
tp2939
a(I0
g1
tp2940
a(I5
g1
tp2941
a(I7
g1
tp2942
a(I0
g1
tp2943
a(I5
g1
tp2944
a(I9
g1
tp2945
a(I7
g1
tp2946
a(I0
g1
tp2947
a(I5
g1
tp2948
a(I9
g1
tp2949
a(I7
g1
tp2950
a(I0
g1
tp2951
a(I5
g1
tp2952
a(I9
g1
tp2953
a(I7
g1
tp2954
a(I0
g1
tp2955
a(I0
g1
tp2956
a(I5
g1
tp2957
a(I0
g1
tp2958
a(I5
g1
tp2959
a(I9
g1
tp2960
a(I7
g1
tp2961
a(I0
g1
tp2962
a(I5
g1
tp2963
a(I9
g1
tp2964
a(I7
g1
tp2965
a(I0
g1
tp2966
a(I5
g1
tp2967
a(I9
g1
tp2968
a(I7
g1
tp2969
a(I0
g1
tp2970
a(I5
g1
tp2971
a(I9
g1
tp2972
a(I7
g1
tp2973
a(I0
g1
tp2974
a(I5
g1
tp2975
a(I7
g1
tp2976
a(I0
g1
tp2977
a(I5
g1
tp2978
a(I9
g1
tp2979
a(I7
g1
tp2980
a(I0
g1
tp2981
a(I5
g1
tp2982
a(I9
g1
tp2983
a(I7
g1
tp2984
a(I0
g1
tp2985
a(I5
g1
tp2986
a(I9
g1
tp2987
a(I7
g1
tp2988
a(I0
g1
tp2989
a(I0
g1
tp2990
a(I5
g1
tp2991
a(I0
g1
tp2992
a(I0
g1
tp2993
a(I5
g1
tp2994
a(I9
g1
tp2995
a(I7
g1
tp2996
a(I0
g1
tp2997
a(I5
g1
tp2998
a(I9
g1
tp2999
a(I7
g1
tp3000
a(I0
g1
tp3001
a(I5
g1
tp3002
a(I9
g1
tp3003
a(I7
g1
tp3004
a(I0
g1
tp3005
a(I0
g1
tp3006
a(I5
g1
tp3007
a(I0
g1
tp3008
a(I5
g1
tp3009
a(I9
g1
tp3010
a(I7
g1
tp3011
a(I0
g1
tp3012
a(I5
g1
tp3013
a(I9
g1
tp3014
a(I7
g1
tp3015
a(I0
g1
tp3016
a(I5
g1
tp3017
a(I9
g1
tp3018
a(I7
g1
tp3019
a(I0
g1
tp3020
a(I0
g1
tp3021
a(I5
g1
tp3022
a(I0
g1
tp3023
a(I0
g1
tp3024
a(I5
g1
tp3025
a(I0
g1
tp3026
a(I0
g1
tp3027
a(I5
g1
tp3028
a(I7
g1
tp3029
a(I0
g1
tp3030
a(I5
g1
tp3031
a(I7
g1
tp3032
a(I0
g1
tp3033
a(I5
g1
tp3034
a(I7
g1
tp3035
a(I0
g1
tp3036
a(I5
g1
tp3037
a(I7
g1
tp3038
a(I0
g1
tp3039
a(I5
g1
tp3040
a(I7
g1
tp3041
a(I0
g1
tp3042
a(I5
g1
tp3043
a(I7
g1
tp3044
a(I0
g1
tp3045
a(I5
g1
tp3046
a(I7
g1
tp3047
a(I0
g1
tp3048
a(I5
g1
tp3049
a(I7
g1
tp3050
a(I0
g1
tp3051
a(I5
g1
tp3052
a(I7
g1
tp3053
a(I0
g1
tp3054
a(I5
g1
tp3055
a(I7
g1
tp3056
a(I0
g1
tp3057
a(I5
g1
tp3058
a(I7
g1
tp3059
a(I0
g1
tp3060
a(I5
g1
tp3061
a(I7
g1
tp3062
a(I0
g1
tp3063
a(I5
g1
tp3064
a(I7
g1
tp3065
a(I0
g1
tp3066
a(I5
g1
tp3067
a(I7
g1
tp3068
a(I0
g1
tp3069
a(I5
g1
tp3070
a(I7
g1
tp3071
a(I0
g1
tp3072
a(I5
g1
tp3073
a(I7
g1
tp3074
a(I0
g1
tp3075
a(I5
g1
tp3076
a(I7
g1
tp3077
a(I0
g1
tp3078
a(I5
g1
tp3079
a(I7
g1
tp3080
a(I0
g1
tp3081
a(I5
g1
tp3082
a(I7
g1
tp3083
a(I0
g1
tp3084
a(I5
g1
tp3085
a(I7
g1
tp3086
a(I0
g1
tp3087
a(I5
g1
tp3088
a(I9
g1
tp3089
a(I7
g1
tp3090
a(I0
g1
tp3091
a(I5
g1
tp3092
a(I7
g1
tp3093
a(I0
g1
tp3094
a(I5
g1
tp3095
a(I7
g1
tp3096
a(I0
g1
tp3097
a(I5
g1
tp3098
a(I7
g1
tp3099
a(I0
g1
tp3100
a(I5
g1
tp3101
a(I9
g1
tp3102
a(I7
g1
tp3103
a(I0
g1
tp3104
a(I9
g1
tp3105
a(I7
g1
tp3106
a(I0
g1
tp3107
a(I5
g1
tp3108
a(I7
g1
tp3109
a(I0
g1
tp3110
a(I5
g1
tp3111
a(I7
g1
tp3112
a(I0
g1
tp3113
a(I5
g1
tp3114
a(I9
g1
tp3115
a(I7
g1
tp3116
a(I0
g1
tp3117
a(I5
g1
tp3118
a(I9
g1
tp3119
a(I7
g1
tp3120
a(I0
g1
tp3121
a(I5
g1
tp3122
a(I7
g1
tp3123
a(I0
g1
tp3124
a(I5
g1
tp3125
a(I9
g1
tp3126
a(I7
g1
tp3127
a(I0
g1
tp3128
a(I5
g1
tp3129
a(I7
g1
tp3130
a(I0
g1
tp3131
a(I5
g1
tp3132
a(I7
g1
tp3133
a(I0
g1
tp3134
a(I5
g1
tp3135
a(I7
g1
tp3136
a(I0
g1
tp3137
a(I5
g1
tp3138
a(I7
g1
tp3139
a(I0
g1
tp3140
a(I5
g1
tp3141
a(I9
g1
tp3142
a(I7
g1
tp3143
a(I0
g1
tp3144
a(I5
g1
tp3145
a(I7
g1
tp3146
a(I0
g1
tp3147
a(I5
g1
tp3148
a(I7
g1
tp3149
a(I0
g1
tp3150
a(I5
g1
tp3151
a(I7
g1
tp3152
a(I0
g1
tp3153
a(I5
g1
tp3154
a(I9
g1
tp3155
a(I7
g1
tp3156
a(I0
g1
tp3157
a(I9
g1
tp3158
a(I7
g1
tp3159
a(I0
g1
tp3160
a(I5
g1
tp3161
a(I7
g1
tp3162
a(I0
g1
tp3163
a(I5
g1
tp3164
a(I7
g1
tp3165
a(I0
g1
tp3166
a(I5
g1
tp3167
a(I9
g1
tp3168
a(I7
g1
tp3169
a(I0
g1
tp3170
a(I5
g1
tp3171
a(I9
g1
tp3172
a(I7
g1
tp3173
a(I0
g1
tp3174
a(I5
g1
tp3175
a(I7
g1
tp3176
a(I0
g1
tp3177
a(I5
g1
tp3178
a(I9
g1
tp3179
a(I7
g1
tp3180
a(I0
g1
tp3181
a(I5
g1
tp3182
a(I5
g1
tp3183
a(I7
g1
tp3184
a(I5
g1
tp3185
a(I9
g1
tp3186
a(I7
g1
tp3187
a(I5
g1
tp3188
a(I7
g1
tp3189
a(I9
g1
tp3190
a(I0
g1
tp3191
a(I5
g1
tp3192
a(I7
g1
tp3193
a(I0
g1
tp3194
a(I5
g1
tp3195
a(I7
g1
tp3196
a(I0
g1
tp3197
a(I5
g1
tp3198
a(I9
g1
tp3199
a(I7
g1
tp3200
a(I0
g1
tp3201
a(I9
g1
tp3202
a(I7
g1
tp3203
a(I0
g1
tp3204
a(I5
g1
tp3205
a(I7
g1
tp3206
a(I0
g1
tp3207
a(I5
g1
tp3208
a(I7
g1
tp3209
a(I0
g1
tp3210
a(I5
g1
tp3211
a(I9
g1
tp3212
a(I7
g1
tp3213
a(I0
g1
tp3214
a(I5
g1
tp3215
a(I9
g1
tp3216
a(I7
g1
tp3217
a(I0
g1
tp3218
a(I5
g1
tp3219
a(I7
g1
tp3220
a(I2
g1
tp3221
a(I5
g1
tp3222
a(I7
g1
tp3223
a(I0
g1
tp3224
a(I2
g1
tp3225
a(I5
g1
tp3226
a(I7
g1
tp3227
a(I0
g1
tp3228
a(I2
g1
tp3229
a(I5
g1
tp3230
a(I7
g1
tp3231
a(I0
g1
tp3232
a(I2
g1
tp3233
a(I5
g1
tp3234
a(I0
g1
tp3235
a(I7
g1
tp3236
a(I2
g1
tp3237
a(I5
g1
tp3238
a(I0
g1
tp3239
a(I7
g1
tp3240
a(I2
g1
tp3241
a(I5
g1
tp3242
a(I0
g1
tp3243
a(I7
g1
tp3244
a(I2
g1
tp3245
a(I5
g1
tp3246
a(I0
g1
tp3247
a(I7
g1
tp3248
a(I2
g1
tp3249
a(I5
g1
tp3250
a(I0
g1
tp3251
a(I7
g1
tp3252
a(I2
g1
tp3253
a(I5
g1
tp3254
a(I0
g1
tp3255
a(I7
g1
tp3256
a(I2
g1
tp3257
a(I5
g1
tp3258
a(I0
g1
tp3259
a(I7
g1
tp3260
a(I2
g1
tp3261
a(I5
g1
tp3262
a(I0
g1
tp3263
a(I7
g1
tp3264
a(I2
g1
tp3265
a(I5
g1
tp3266
a(I0
g1
tp3267
a(I7
g1
tp3268
a(I2
g1
tp3269
a(I5
g1
tp3270
a(I0
g1
tp3271
a(I7
g1
tp3272
a(I2
g1
tp3273
a(I5
g1
tp3274
a(I0
g1
tp3275
a(I7
g1
tp3276
a(I2
g1
tp3277
a(I5
g1
tp3278
a(I0
g1
tp3279
a(I7
g1
tp3280
a(I2
g1
tp3281
a(I5
g1
tp3282
a(I0
g1
tp3283
a(I7
g1
tp3284
a(I2
g1
tp3285
a(I5
g1
tp3286
a(I0
g1
tp3287
a(I7
g1
tp3288
a(I2
g1
tp3289
a(I5
g1
tp3290
a(I0
g1
tp3291
a(I7
g1
tp3292
a(I2
g1
tp3293
a(I5
g1
tp3294
a(I0
g1
tp3295
a(I7
g1
tp3296
a(I2
g1
tp3297
a(I5
g1
tp3298
a(I0
g1
tp3299
a(I7
g1
tp3300
a(I2
g1
tp3301
a(I5
g1
tp3302
a(I0
g1
tp3303
a(I7
g1
tp3304
a(I2
g1
tp3305
a(I5
g1
tp3306
a(I0
g1
tp3307
a(I7
g1
tp3308
a(I2
g1
tp3309
a(I5
g1
tp3310
a(I0
g1
tp3311
a(I7
g1
tp3312
a(I2
g1
tp3313
a(I5
g1
tp3314
a(I0
g1
tp3315
a(I7
g1
tp3316
a(I2
g1
tp3317
a(I5
g1
tp3318
a(I0
g1
tp3319
a(I7
g1
tp3320
a(I2
g1
tp3321
a(I5
g1
tp3322
a(I0
g1
tp3323
a(I7
g1
tp3324
a(I2
g1
tp3325
a(I5
g1
tp3326
a(I0
g1
tp3327
a(I7
g1
tp3328
a(I2
g1
tp3329
a(I5
g1
tp3330
a(I0
g1
tp3331
a(I7
g1
tp3332
a(I2
g1
tp3333
a(I5
g1
tp3334
a(I0
g1
tp3335
a(I7
g1
tp3336
a(I2
g1
tp3337
a(I5
g1
tp3338
a(I0
g1
tp3339
a(I7
g1
tp3340
a(I2
g1
tp3341
a(I5
g1
tp3342
a(I0
g1
tp3343
a(I7
g1
tp3344
a(I2
g1
tp3345
a(I5
g1
tp3346
a(I0
g1
tp3347
a(I7
g1
tp3348
a(I2
g1
tp3349
a(I5
g1
tp3350
a(I0
g1
tp3351
a(I7
g1
tp3352
a(I2
g1
tp3353
a(I5
g1
tp3354
a(I0
g1
tp3355
a(I7
g1
tp3356
a(I2
g1
tp3357
a(I5
g1
tp3358
a(I0
g1
tp3359
a(I7
g1
tp3360
a(I2
g1
tp3361
a(I5
g1
tp3362
a(I0
g1
tp3363
a(I7
g1
tp3364
a(I2
g1
tp3365
a(I5
g1
tp3366
a(I0
g1
tp3367
a(I7
g1
tp3368
a(I2
g1
tp3369
a(I5
g1
tp3370
a(I0
g1
tp3371
a(I7
g1
tp3372
a(I0
g1
tp3373
a(I0
g1
tp3374
a(I9
g4
tp3375
a(I5
g1
tp3376
a(I7
g1
tp3377
a(I0
g1
tp3378
a(I0
g1
tp3379
a(I9
g4
tp3380
a(I5
g1
tp3381
a(I0
g1
tp3382
a(I0
g1
tp3383
a(I9
g4
tp3384
a(I5
g1
tp3385
a(I0
g1
tp3386
a(I0
g1
tp3387
a(I9
g4
tp3388
a(I5
g1
tp3389
a(I0
g1
tp3390
a(I0
g1
tp3391
a(I9
g4
tp3392
a(I5
g1
tp3393
a(I7
g1
tp3394
a(I5
g1
tp3395
a(I7
g1
tp3396
a(I9
g4
tp3397
a(I7
g1
tp3398
a(I5
g1
tp3399
a(I7
g1
tp3400
a(I0
g1
tp3401
a(I5
g1
tp3402
a(I7
g1
tp3403
a(I0
g1
tp3404
a(I7
g1
tp3405
a(I9
g4
tp3406
a(I5
g1
tp3407
a(I7
g1
tp3408
a(I9
g4
tp3409
a(I5
g1
tp3410
a(I7
g1
tp3411
a(I0
g1
tp3412
a(I0
g1
tp3413
a(I9
g4
tp3414
a(I5
g1
tp3415
a(I0
g1
tp3416
a(I0
g1
tp3417
a(I9
g4
tp3418
a(I5
g1
tp3419
a(I0
g1
tp3420
a(I0
g1
tp3421
a(I9
g4
tp3422
a(I5
g1
tp3423
a(I5
g1
tp3424
a(I7
g1
tp3425
a(I9
g4
tp3426
a(I7
g1
tp3427
a(I5
g1
tp3428
a(I7
g1
tp3429
a(I0
g1
tp3430
a(I5
g1
tp3431
a(I7
g1
tp3432
a(I0
g1
tp3433
a(I7
g1
tp3434
a(I9
g4
tp3435
a(I5
g1
tp3436
a(I7
g1
tp3437
a(I9
g4
tp3438
a(I5
g1
tp3439
a(I7
g1
tp3440
a(I0
g1
tp3441
a(I5
g1
tp3442
a(I9
g4
tp3443
a(I5
g1
tp3444
a(I7
g1
tp3445
a(I5
g1
tp3446
a(I7
g1
tp3447
a(I5
g1
tp3448
a(I7
g1
tp3449
a(I9
g4
tp3450
a(I7
g1
tp3451
a(I5
g1
tp3452
a(I7
g1
tp3453
a(I0
g1
tp3454
a(I5
g1
tp3455
a(I7
g1
tp3456
a(I0
g1
tp3457
a(I7
g1
tp3458
a(I9
g4
tp3459
a(I5
g1
tp3460
a(I7
g1
tp3461
a(I0
g1
tp3462
a(I7
g1
tp3463
a(I9
g4
tp3464
a(I5
g1
tp3465
a(I7
g1
tp3466
a(I9
g4
tp3467
a(I5
g1
tp3468
a(I7
g1
tp3469
a(I0
g1
tp3470
a.